Archive member included to satisfy reference by file (symbol)

c:/myprogram/rt_thread/env/tools/gnu_gcc/arm_gcc/mingw/bin/../lib/gcc/arm-none-eabi/5.4.1/armv7e-m/fpu\libgcc.a(_arm_addsubdf3.o)
                              build\kernel\components\libc\compilers\minilibc\math.o (__aeabi_dsub)
c:/myprogram/rt_thread/env/tools/gnu_gcc/arm_gcc/mingw/bin/../lib/gcc/arm-none-eabi/5.4.1/armv7e-m/fpu\libgcc.a(_arm_muldivdf3.o)
                              build\kernel\components\libc\compilers\minilibc\math.o (__aeabi_dmul)
c:/myprogram/rt_thread/env/tools/gnu_gcc/arm_gcc/mingw/bin/../lib/gcc/arm-none-eabi/5.4.1/armv7e-m/fpu\libgcc.a(_arm_fixdfsi.o)
                              build\kernel\components\libc\compilers\minilibc\math.o (__aeabi_d2iz)
c:/myprogram/rt_thread/env/tools/gnu_gcc/arm_gcc/mingw/bin/../lib/gcc/arm-none-eabi/5.4.1/armv7e-m/fpu\libgcc.a(_aeabi_uldivmod.o)
                              D:\IOT\rtthread-v4.0\rt-thread\bsp\stm32\libraries\STM32F4xx_HAL\STM32F4xx_HAL_Driver\Src\stm32f4xx_hal_rcc.o (__aeabi_uldivmod)
c:/myprogram/rt_thread/env/tools/gnu_gcc/arm_gcc/mingw/bin/../lib/gcc/arm-none-eabi/5.4.1/armv7e-m/fpu\libgcc.a(_udivmoddi4.o)
                              c:/myprogram/rt_thread/env/tools/gnu_gcc/arm_gcc/mingw/bin/../lib/gcc/arm-none-eabi/5.4.1/armv7e-m/fpu\libgcc.a(_aeabi_uldivmod.o) (__udivmoddi4)
c:/myprogram/rt_thread/env/tools/gnu_gcc/arm_gcc/mingw/bin/../lib/gcc/arm-none-eabi/5.4.1/armv7e-m/fpu\libgcc.a(_dvmd_tls.o)
                              c:/myprogram/rt_thread/env/tools/gnu_gcc/arm_gcc/mingw/bin/../lib/gcc/arm-none-eabi/5.4.1/armv7e-m/fpu\libgcc.a(_aeabi_uldivmod.o) (__aeabi_ldiv0)
c:/myprogram/rt_thread/env/tools/gnu_gcc/arm_gcc/mingw/bin/../lib/gcc/arm-none-eabi/5.4.1/../../../../arm-none-eabi/lib/armv7e-m/fpu\libc.a(lib_a-exit.o)
                              c:/myprogram/rt_thread/env/tools/gnu_gcc/arm_gcc/mingw/bin/../lib/gcc/arm-none-eabi/5.4.1/../../../../arm-none-eabi/lib/armv7e-m/fpu/crt0.o (exit)
c:/myprogram/rt_thread/env/tools/gnu_gcc/arm_gcc/mingw/bin/../lib/gcc/arm-none-eabi/5.4.1/../../../../arm-none-eabi/lib/armv7e-m/fpu\libc.a(lib_a-impure.o)
                              c:/myprogram/rt_thread/env/tools/gnu_gcc/arm_gcc/mingw/bin/../lib/gcc/arm-none-eabi/5.4.1/../../../../arm-none-eabi/lib/armv7e-m/fpu\libc.a(lib_a-exit.o) (_global_impure_ptr)
c:/myprogram/rt_thread/env/tools/gnu_gcc/arm_gcc/mingw/bin/../lib/gcc/arm-none-eabi/5.4.1/../../../../arm-none-eabi/lib/armv7e-m/fpu\libc.a(lib_a-init.o)
                              c:/myprogram/rt_thread/env/tools/gnu_gcc/arm_gcc/mingw/bin/../lib/gcc/arm-none-eabi/5.4.1/../../../../arm-none-eabi/lib/armv7e-m/fpu/crt0.o (__libc_init_array)
c:/myprogram/rt_thread/env/tools/gnu_gcc/arm_gcc/mingw/bin/../lib/gcc/arm-none-eabi/5.4.1/../../../../arm-none-eabi/lib/armv7e-m/fpu\libc.a(lib_a-__call_atexit.o)
                              c:/myprogram/rt_thread/env/tools/gnu_gcc/arm_gcc/mingw/bin/../lib/gcc/arm-none-eabi/5.4.1/../../../../arm-none-eabi/lib/armv7e-m/fpu\libc.a(lib_a-exit.o) (__call_exitprocs)
c:/myprogram/rt_thread/env/tools/gnu_gcc/arm_gcc/mingw/bin/../lib/gcc/arm-none-eabi/5.4.1/../../../../arm-none-eabi/lib/armv7e-m/fpu\libc.a(lib_a-atexit.o)
                              c:/myprogram/rt_thread/env/tools/gnu_gcc/arm_gcc/mingw/bin/../lib/gcc/arm-none-eabi/5.4.1/../../../../arm-none-eabi/lib/armv7e-m/fpu\libc.a(lib_a-__call_atexit.o) (atexit)
c:/myprogram/rt_thread/env/tools/gnu_gcc/arm_gcc/mingw/bin/../lib/gcc/arm-none-eabi/5.4.1/../../../../arm-none-eabi/lib/armv7e-m/fpu\libc.a(lib_a-fini.o)
                              c:/myprogram/rt_thread/env/tools/gnu_gcc/arm_gcc/mingw/bin/../lib/gcc/arm-none-eabi/5.4.1/../../../../arm-none-eabi/lib/armv7e-m/fpu\libc.a(lib_a-__call_atexit.o) (__libc_fini_array)
c:/myprogram/rt_thread/env/tools/gnu_gcc/arm_gcc/mingw/bin/../lib/gcc/arm-none-eabi/5.4.1/../../../../arm-none-eabi/lib/armv7e-m/fpu\libc.a(lib_a-__atexit.o)
                              c:/myprogram/rt_thread/env/tools/gnu_gcc/arm_gcc/mingw/bin/../lib/gcc/arm-none-eabi/5.4.1/../../../../arm-none-eabi/lib/armv7e-m/fpu\libc.a(lib_a-atexit.o) (__register_exitproc)

Allocating common symbols
Common symbol       size              file

rt_interrupt_to_thread
                    0x4               build\kernel\libcpu\arm\cortex-m4\cpuport.o
rt_interrupt_from_thread
                    0x4               build\kernel\libcpu\arm\cortex-m4\cpuport.o
shell               0x4               build\kernel\components\finsh\shell.o
rt_thread_switch_interrupt_flag
                    0x4               build\kernel\libcpu\arm\cortex-m4\cpuport.o
uwTick              0x4               D:\IOT\rtthread-v4.0\rt-thread\bsp\stm32\libraries\STM32F4xx_HAL\STM32F4xx_HAL_Driver\Src\stm32f4xx_hal.o
rt_thread_priority_table
                    0x100             build\kernel\src\scheduler.o
rt_object_put_hook  0x4               build\kernel\src\object.o
rt_current_priority
                    0x1               build\kernel\src\scheduler.o
rt_assert_hook      0x4               build\kernel\src\kservice.o
rt_object_take_hook
                    0x4               build\kernel\src\object.o
rt_current_thread   0x4               build\kernel\src\scheduler.o
rt_thread_ready_priority_group
                    0x4               build\kernel\src\scheduler.o
rt_thread_defunct   0x8               build\kernel\src\scheduler.o
rt_object_trytake_hook
                    0x4               build\kernel\src\object.o

Discarded input sections

 .text          0x00000000        0x0 c:/myprogram/rt_thread/env/tools/gnu_gcc/arm_gcc/mingw/bin/../lib/gcc/arm-none-eabi/5.4.1/armv7e-m/fpu/crti.o
 .data          0x00000000        0x0 c:/myprogram/rt_thread/env/tools/gnu_gcc/arm_gcc/mingw/bin/../lib/gcc/arm-none-eabi/5.4.1/armv7e-m/fpu/crti.o
 .bss           0x00000000        0x0 c:/myprogram/rt_thread/env/tools/gnu_gcc/arm_gcc/mingw/bin/../lib/gcc/arm-none-eabi/5.4.1/armv7e-m/fpu/crti.o
 .data          0x00000000        0x4 c:/myprogram/rt_thread/env/tools/gnu_gcc/arm_gcc/mingw/bin/../lib/gcc/arm-none-eabi/5.4.1/armv7e-m/fpu/crtbegin.o
 .fini_array    0x00000000        0x4 c:/myprogram/rt_thread/env/tools/gnu_gcc/arm_gcc/mingw/bin/../lib/gcc/arm-none-eabi/5.4.1/armv7e-m/fpu/crtbegin.o
 .text          0x00000000       0x74 c:/myprogram/rt_thread/env/tools/gnu_gcc/arm_gcc/mingw/bin/../lib/gcc/arm-none-eabi/5.4.1/../../../../arm-none-eabi/lib/armv7e-m/fpu/crt0.o
 .data          0x00000000        0x0 c:/myprogram/rt_thread/env/tools/gnu_gcc/arm_gcc/mingw/bin/../lib/gcc/arm-none-eabi/5.4.1/../../../../arm-none-eabi/lib/armv7e-m/fpu/crt0.o
 .bss           0x00000000        0x0 c:/myprogram/rt_thread/env/tools/gnu_gcc/arm_gcc/mingw/bin/../lib/gcc/arm-none-eabi/5.4.1/../../../../arm-none-eabi/lib/armv7e-m/fpu/crt0.o
 .ARM.extab     0x00000000        0x0 c:/myprogram/rt_thread/env/tools/gnu_gcc/arm_gcc/mingw/bin/../lib/gcc/arm-none-eabi/5.4.1/../../../../arm-none-eabi/lib/armv7e-m/fpu/crt0.o
 .ARM.exidx     0x00000000        0x8 c:/myprogram/rt_thread/env/tools/gnu_gcc/arm_gcc/mingw/bin/../lib/gcc/arm-none-eabi/5.4.1/../../../../arm-none-eabi/lib/armv7e-m/fpu/crt0.o
 .ARM.attributes
                0x00000000       0x20 c:/myprogram/rt_thread/env/tools/gnu_gcc/arm_gcc/mingw/bin/../lib/gcc/arm-none-eabi/5.4.1/../../../../arm-none-eabi/lib/armv7e-m/fpu/crt0.o
 .text          0x00000000        0x0 build\applications\main.o
 .data          0x00000000        0x0 build\applications\main.o
 .bss           0x00000000        0x0 build\applications\main.o
 .text          0x00000000        0x0 build\board\board.o
 .data          0x00000000        0x0 build\board\board.o
 .bss           0x00000000        0x0 build\board\board.o
 .text          0x00000000        0x0 build\board\CubeMX_Config\Src\stm32f4xx_hal_msp.o
 .data          0x00000000        0x0 build\board\CubeMX_Config\Src\stm32f4xx_hal_msp.o
 .bss           0x00000000        0x0 build\board\CubeMX_Config\Src\stm32f4xx_hal_msp.o
 .text.HAL_SPI_MspInit
                0x00000000       0x90 build\board\CubeMX_Config\Src\stm32f4xx_hal_msp.o
 .text.HAL_SPI_MspDeInit
                0x00000000       0x3c build\board\CubeMX_Config\Src\stm32f4xx_hal_msp.o
 .text.HAL_UART_MspDeInit
                0x00000000       0x3c build\board\CubeMX_Config\Src\stm32f4xx_hal_msp.o
 .text          0x00000000       0x14 D:\IOT\rtthread-v4.0\rt-thread\bsp\stm32\libraries\STM32F4xx_HAL\CMSIS\Device\ST\STM32F4xx\Source\Templates\gcc\startup_stm32f407xx.o
 .data          0x00000000        0x0 D:\IOT\rtthread-v4.0\rt-thread\bsp\stm32\libraries\STM32F4xx_HAL\CMSIS\Device\ST\STM32F4xx\Source\Templates\gcc\startup_stm32f407xx.o
 .bss           0x00000000        0x0 D:\IOT\rtthread-v4.0\rt-thread\bsp\stm32\libraries\STM32F4xx_HAL\CMSIS\Device\ST\STM32F4xx\Source\Templates\gcc\startup_stm32f407xx.o
 .text          0x00000000        0x0 build\kernel\src\clock.o
 .data          0x00000000        0x0 build\kernel\src\clock.o
 .bss           0x00000000        0x0 build\kernel\src\clock.o
 .text.rt_system_tick_init
                0x00000000       0x10 build\kernel\src\clock.o
 .text.rt_tick_set
                0x00000000       0x28 build\kernel\src\clock.o
 .text          0x00000000        0x0 build\kernel\src\components.o
 .data          0x00000000        0x0 build\kernel\src\components.o
 .bss           0x00000000        0x0 build\kernel\src\components.o
 .text          0x00000000        0x0 build\kernel\src\device.o
 .data          0x00000000        0x0 build\kernel\src\device.o
 .bss           0x00000000        0x0 build\kernel\src\device.o
 .text.rt_device_unregister
                0x00000000       0x6c build\kernel\src\device.o
 .text.rt_device_init_all
                0x00000000       0x10 build\kernel\src\device.o
 .text.rt_device_create
                0x00000000       0x4c build\kernel\src\device.o
 .text.rt_device_destroy
                0x00000000       0x70 build\kernel\src\device.o
 .text.rt_device_init
                0x00000000       0x74 build\kernel\src\device.o
 .text.rt_device_control
                0x00000000       0x68 build\kernel\src\device.o
 .text.rt_device_set_tx_complete
                0x00000000       0x54 build\kernel\src\device.o
 .rodata.__FUNCTION__.5188
                0x00000000       0x15 build\kernel\src\device.o
 .rodata.__FUNCTION__.5211
                0x00000000       0x12 build\kernel\src\device.o
 .rodata.__FUNCTION__.5216
                0x00000000        0xf build\kernel\src\device.o
 .rodata.__FUNCTION__.5247
                0x00000000       0x12 build\kernel\src\device.o
 .rodata.__FUNCTION__.5261
                0x00000000       0x1a build\kernel\src\device.o
 .text          0x00000000        0x0 build\kernel\src\idle.o
 .data          0x00000000        0x0 build\kernel\src\idle.o
 .bss           0x00000000        0x0 build\kernel\src\idle.o
 .text.rt_thread_idle_sethook
                0x00000000       0x58 build\kernel\src\idle.o
 .text.rt_thread_idle_delhook
                0x00000000       0x58 build\kernel\src\idle.o
 .text.rt_thread_idle_gethandler
                0x00000000       0x18 build\kernel\src\idle.o
 .text          0x00000000        0x0 build\kernel\src\ipc.o
 .data          0x00000000        0x0 build\kernel\src\ipc.o
 .bss           0x00000000        0x0 build\kernel\src\ipc.o
 .text.rt_ipc_list_resume_all
                0x00000000       0x48 build\kernel\src\ipc.o
 .text.rt_sem_detach
                0x00000000       0x74 build\kernel\src\ipc.o
 .text.rt_sem_create
                0x00000000       0x90 build\kernel\src\ipc.o
 .text.rt_sem_delete
                0x00000000       0xac build\kernel\src\ipc.o
 .text.rt_sem_trytake
                0x00000000       0x1c build\kernel\src\ipc.o
 .text.rt_sem_control
                0x00000000       0x84 build\kernel\src\ipc.o
 .text.rt_mutex_init
                0x00000000       0x64 build\kernel\src\ipc.o
 .text.rt_mutex_detach
                0x00000000       0x7c build\kernel\src\ipc.o
 .text.rt_mutex_create
                0x00000000       0x88 build\kernel\src\ipc.o
 .text.rt_mutex_delete
                0x00000000       0xac build\kernel\src\ipc.o
 .text.rt_mutex_take
                0x00000000      0x1d0 build\kernel\src\ipc.o
 .text.rt_mutex_release
                0x00000000      0x190 build\kernel\src\ipc.o
 .text.rt_mutex_control
                0x00000000       0x50 build\kernel\src\ipc.o
 .text.rt_event_init
                0x00000000       0x54 build\kernel\src\ipc.o
 .text.rt_event_detach
                0x00000000       0x7c build\kernel\src\ipc.o
 .text.rt_event_create
                0x00000000       0x74 build\kernel\src\ipc.o
 .text.rt_event_delete
                0x00000000       0xac build\kernel\src\ipc.o
 .text.rt_event_send
                0x00000000      0x148 build\kernel\src\ipc.o
 .text.rt_event_recv
                0x00000000      0x1fc build\kernel\src\ipc.o
 .text.rt_event_control
                0x00000000       0x80 build\kernel\src\ipc.o
 .text.rt_mb_init
                0x00000000       0x78 build\kernel\src\ipc.o
 .text.rt_mb_detach
                0x00000000       0x84 build\kernel\src\ipc.o
 .text.rt_mb_create
                0x00000000       0xbc build\kernel\src\ipc.o
 .text.rt_mb_delete
                0x00000000       0xc0 build\kernel\src\ipc.o
 .text.rt_mb_send_wait
                0x00000000      0x208 build\kernel\src\ipc.o
 .text.rt_mb_send
                0x00000000       0x20 build\kernel\src\ipc.o
 .text.rt_mb_recv
                0x00000000      0x234 build\kernel\src\ipc.o
 .text.rt_mb_control
                0x00000000       0x94 build\kernel\src\ipc.o
 .text.rt_mq_init
                0x00000000       0xcc build\kernel\src\ipc.o
 .text.rt_mq_detach
                0x00000000       0x84 build\kernel\src\ipc.o
 .text.rt_mq_create
                0x00000000      0x10c build\kernel\src\ipc.o
 .text.rt_mq_delete
                0x00000000       0xc0 build\kernel\src\ipc.o
 .text.rt_mq_send_wait
                0x00000000      0x268 build\kernel\src\ipc.o
 .text.rt_mq_send
                0x00000000       0x24 build\kernel\src\ipc.o
 .text.rt_mq_urgent
                0x00000000      0x144 build\kernel\src\ipc.o
 .text.rt_mq_recv
                0x00000000      0x288 build\kernel\src\ipc.o
 .text.rt_mq_control
                0x00000000       0xc0 build\kernel\src\ipc.o
 .rodata.__FUNCTION__.5298
                0x00000000        0xe build\kernel\src\ipc.o
 .rodata.__FUNCTION__.5306
                0x00000000        0xe build\kernel\src\ipc.o
 .rodata.__FUNCTION__.5311
                0x00000000        0xe build\kernel\src\ipc.o
 .rodata.__FUNCTION__.5336
                0x00000000        0xf build\kernel\src\ipc.o
 .rodata.__FUNCTION__.5343
                0x00000000        0xe build\kernel\src\ipc.o
 .rodata.__FUNCTION__.5347
                0x00000000       0x10 build\kernel\src\ipc.o
 .rodata.__FUNCTION__.5354
                0x00000000       0x10 build\kernel\src\ipc.o
 .rodata.__FUNCTION__.5359
                0x00000000       0x10 build\kernel\src\ipc.o
 .rodata.__FUNCTION__.5367
                0x00000000        0xe build\kernel\src\ipc.o
 .rodata.__FUNCTION__.5376
                0x00000000       0x11 build\kernel\src\ipc.o
 .rodata.__FUNCTION__.5384
                0x00000000       0x11 build\kernel\src\ipc.o
 .rodata.__FUNCTION__.5390
                0x00000000        0xe build\kernel\src\ipc.o
 .rodata.__FUNCTION__.5394
                0x00000000       0x10 build\kernel\src\ipc.o
 .rodata.__FUNCTION__.5401
                0x00000000       0x10 build\kernel\src\ipc.o
 .rodata.__FUNCTION__.5405
                0x00000000       0x10 build\kernel\src\ipc.o
 .rodata.__FUNCTION__.5416
                0x00000000        0xe build\kernel\src\ipc.o
 .rodata.__FUNCTION__.5431
                0x00000000        0xe build\kernel\src\ipc.o
 .rodata.__FUNCTION__.5439
                0x00000000       0x11 build\kernel\src\ipc.o
 .rodata.__FUNCTION__.5447
                0x00000000        0xb build\kernel\src\ipc.o
 .rodata.__FUNCTION__.5451
                0x00000000        0xd build\kernel\src\ipc.o
 .rodata.__FUNCTION__.5459
                0x00000000        0xd build\kernel\src\ipc.o
 .rodata.__FUNCTION__.5464
                0x00000000        0xd build\kernel\src\ipc.o
 .rodata.__FUNCTION__.5473
                0x00000000       0x10 build\kernel\src\ipc.o
 .rodata.__FUNCTION__.5491
                0x00000000        0xb build\kernel\src\ipc.o
 .rodata.__FUNCTION__.5503
                0x00000000        0xe build\kernel\src\ipc.o
 .rodata.__FUNCTION__.5516
                0x00000000        0xb build\kernel\src\ipc.o
 .rodata.__FUNCTION__.5523
                0x00000000        0xd build\kernel\src\ipc.o
 .rodata.__FUNCTION__.5534
                0x00000000        0xd build\kernel\src\ipc.o
 .rodata.__FUNCTION__.5542
                0x00000000        0xd build\kernel\src\ipc.o
 .rodata.__FUNCTION__.5553
                0x00000000       0x10 build\kernel\src\ipc.o
 .rodata.__FUNCTION__.5571
                0x00000000        0xd build\kernel\src\ipc.o
 .rodata.__FUNCTION__.5582
                0x00000000        0xb build\kernel\src\ipc.o
 .rodata.__FUNCTION__.5595
                0x00000000        0xe build\kernel\src\ipc.o
 .text          0x00000000        0x0 build\kernel\src\irq.o
 .data          0x00000000        0x0 build\kernel\src\irq.o
 .bss           0x00000000        0x0 build\kernel\src\irq.o
 .text.rt_interrupt_enter_sethook
                0x00000000       0x20 build\kernel\src\irq.o
 .text.rt_interrupt_leave_sethook
                0x00000000       0x20 build\kernel\src\irq.o
 .text          0x00000000        0x0 build\kernel\src\kservice.o
 .data          0x00000000        0x0 build\kernel\src\kservice.o
 .bss           0x00000000        0x0 build\kernel\src\kservice.o
 .text.rt_get_errno
                0x00000000       0x38 build\kernel\src\kservice.o
 .text._rt_errno
                0x00000000       0x34 build\kernel\src\kservice.o
 .text.rt_strstr
                0x00000000       0x60 build\kernel\src\kservice.o
 .text.rt_strcasecmp
                0x00000000       0x64 build\kernel\src\kservice.o
 .text.rt_strcmp
                0x00000000       0x44 build\kernel\src\kservice.o
 .text.rt_strnlen
                0x00000000       0x40 build\kernel\src\kservice.o
 .text.rt_strdup
                0x00000000       0x3c build\kernel\src\kservice.o
 .text.rt_snprintf
                0x00000000       0x30 build\kernel\src\kservice.o
 .text.rt_kputs
                0x00000000       0x64 build\kernel\src\kservice.o
 .text.rt_malloc_align
                0x00000000       0x80 build\kernel\src\kservice.o
 .text.rt_free_align
                0x00000000       0x20 build\kernel\src\kservice.o
 .text.rt_assert_set_hook
                0x00000000       0x20 build\kernel\src\kservice.o
 .text          0x00000000        0x0 build\kernel\src\mem.o
 .data          0x00000000        0x0 build\kernel\src\mem.o
 .bss           0x00000000        0x0 build\kernel\src\mem.o
 .text.rt_malloc_sethook
                0x00000000       0x20 build\kernel\src\mem.o
 .text.rt_free_sethook
                0x00000000       0x20 build\kernel\src\mem.o
 .text.rt_realloc
                0x00000000      0x198 build\kernel\src\mem.o
 .text.rt_memory_info
                0x00000000       0x50 build\kernel\src\mem.o
 .rodata.__FUNCTION__.5321
                0x00000000        0xb build\kernel\src\mem.o
 .text          0x00000000        0x0 build\kernel\src\mempool.o
 .data          0x00000000        0x0 build\kernel\src\mempool.o
 .bss           0x00000000        0x0 build\kernel\src\mempool.o
 .text.rt_list_init
                0x00000000       0x24 build\kernel\src\mempool.o
 .text.rt_list_insert_after
                0x00000000       0x34 build\kernel\src\mempool.o
 .text.rt_list_isempty
                0x00000000       0x24 build\kernel\src\mempool.o
 .bss.rt_mp_alloc_hook
                0x00000000        0x4 build\kernel\src\mempool.o
 .bss.rt_mp_free_hook
                0x00000000        0x4 build\kernel\src\mempool.o
 .text.rt_mp_alloc_sethook
                0x00000000       0x20 build\kernel\src\mempool.o
 .text.rt_mp_free_sethook
                0x00000000       0x20 build\kernel\src\mempool.o
 .rodata        0x00000000      0x14d build\kernel\src\mempool.o
 .text.rt_mp_init
                0x00000000      0x10c build\kernel\src\mempool.o
 .text.rt_mp_detach
                0x00000000       0xa4 build\kernel\src\mempool.o
 .text.rt_mp_create
                0x00000000      0x134 build\kernel\src\mempool.o
 .text.rt_mp_delete
                0x00000000       0xe4 build\kernel\src\mempool.o
 .text.rt_mp_alloc
                0x00000000      0x168 build\kernel\src\mempool.o
 .text.rt_mp_free
                0x00000000       0x90 build\kernel\src\mempool.o
 .rodata.__FUNCTION__.5279
                0x00000000        0xb build\kernel\src\mempool.o
 .rodata.__FUNCTION__.5288
                0x00000000        0xd build\kernel\src\mempool.o
 .rodata.__FUNCTION__.5301
                0x00000000        0xd build\kernel\src\mempool.o
 .rodata.__FUNCTION__.5311
                0x00000000        0xd build\kernel\src\mempool.o
 .rodata.__FUNCTION__.5323
                0x00000000        0xc build\kernel\src\mempool.o
 .debug_info    0x00000000      0x8d9 build\kernel\src\mempool.o
 .debug_abbrev  0x00000000      0x1f2 build\kernel\src\mempool.o
 .debug_loc     0x00000000      0x3ac build\kernel\src\mempool.o
 .debug_aranges
                0x00000000       0x70 build\kernel\src\mempool.o
 .debug_ranges  0x00000000       0x60 build\kernel\src\mempool.o
 .debug_line    0x00000000      0x2cf build\kernel\src\mempool.o
 .debug_str     0x00000000      0x623 build\kernel\src\mempool.o
 .comment       0x00000000       0x6f build\kernel\src\mempool.o
 .debug_frame   0x00000000      0x1c8 build\kernel\src\mempool.o
 .ARM.attributes
                0x00000000       0x39 build\kernel\src\mempool.o
 .text          0x00000000        0x0 build\kernel\src\object.o
 .data          0x00000000        0x0 build\kernel\src\object.o
 .bss           0x00000000        0x0 build\kernel\src\object.o
 .text.rt_object_attach_sethook
                0x00000000       0x20 build\kernel\src\object.o
 .text.rt_object_detach_sethook
                0x00000000       0x20 build\kernel\src\object.o
 .text.rt_object_trytake_sethook
                0x00000000       0x20 build\kernel\src\object.o
 .text.rt_object_take_sethook
                0x00000000       0x20 build\kernel\src\object.o
 .text.rt_object_put_sethook
                0x00000000       0x20 build\kernel\src\object.o
 .text.rt_system_object_init
                0x00000000       0x10 build\kernel\src\object.o
 .text.rt_object_find
                0x00000000       0xd0 build\kernel\src\object.o
 .rodata.__FUNCTION__.5354
                0x00000000        0xf build\kernel\src\object.o
 .text          0x00000000        0x0 build\kernel\src\scheduler.o
 .data          0x00000000        0x0 build\kernel\src\scheduler.o
 .bss           0x00000000        0x0 build\kernel\src\scheduler.o
 .text.rt_scheduler_sethook
                0x00000000       0x20 build\kernel\src\scheduler.o
 .text.rt_critical_level
                0x00000000       0x1c build\kernel\src\scheduler.o
 .text          0x00000000        0x0 build\kernel\src\signal.o
 .data          0x00000000        0x0 build\kernel\src\signal.o
 .bss           0x00000000        0x0 build\kernel\src\signal.o
 .debug_info    0x00000000       0x72 build\kernel\src\signal.o
 .debug_abbrev  0x00000000       0x26 build\kernel\src\signal.o
 .debug_aranges
                0x00000000       0x18 build\kernel\src\signal.o
 .debug_line    0x00000000       0x1d build\kernel\src\signal.o
 .debug_str     0x00000000      0x1b7 build\kernel\src\signal.o
 .comment       0x00000000       0x6f build\kernel\src\signal.o
 .ARM.attributes
                0x00000000       0x39 build\kernel\src\signal.o
 .text          0x00000000        0x0 build\kernel\src\thread.o
 .data          0x00000000        0x0 build\kernel\src\thread.o
 .bss           0x00000000        0x0 build\kernel\src\thread.o
 .text.rt_thread_suspend_sethook
                0x00000000       0x20 build\kernel\src\thread.o
 .text.rt_thread_resume_sethook
                0x00000000       0x20 build\kernel\src\thread.o
 .text.rt_thread_inited_sethook
                0x00000000       0x20 build\kernel\src\thread.o
 .text.rt_thread_detach
                0x00000000       0xc4 build\kernel\src\thread.o
 .text.rt_thread_delete
                0x00000000       0xa8 build\kernel\src\thread.o
 .text.rt_thread_delay
                0x00000000       0x18 build\kernel\src\thread.o
 .text.rt_thread_delay_until
                0x00000000       0xdc build\kernel\src\thread.o
 .text.rt_thread_control
                0x00000000       0xd4 build\kernel\src\thread.o
 .text.rt_thread_find
                0x00000000       0x94 build\kernel\src\thread.o
 .rodata.__FUNCTION__.5315
                0x00000000       0x11 build\kernel\src\thread.o
 .rodata.__FUNCTION__.5331
                0x00000000       0x11 build\kernel\src\thread.o
 .rodata.__FUNCTION__.5350
                0x00000000       0x16 build\kernel\src\thread.o
 .rodata.__FUNCTION__.5361
                0x00000000       0x12 build\kernel\src\thread.o
 .rodata.__FUNCTION__.5389
                0x00000000        0xf build\kernel\src\thread.o
 .text          0x00000000        0x0 build\kernel\src\timer.o
 .data          0x00000000        0x0 build\kernel\src\timer.o
 .bss           0x00000000        0x0 build\kernel\src\timer.o
 .text.rt_timer_enter_sethook
                0x00000000       0x20 build\kernel\src\timer.o
 .text.rt_timer_exit_sethook
                0x00000000       0x20 build\kernel\src\timer.o
 .text.rt_timer_list_next_timeout
                0x00000000       0x30 build\kernel\src\timer.o
 .text.rt_timer_create
                0x00000000       0x40 build\kernel\src\timer.o
 .text.rt_timer_delete
                0x00000000       0x80 build\kernel\src\timer.o
 .text.rt_timer_next_timeout_tick
                0x00000000       0x14 build\kernel\src\timer.o
 .rodata.__FUNCTION__.5322
                0x00000000       0x10 build\kernel\src\timer.o
 .text          0x00000000        0x0 build\kernel\libcpu\arm\common\backtrace.o
 .data          0x00000000        0x0 build\kernel\libcpu\arm\common\backtrace.o
 .bss           0x00000000        0x0 build\kernel\libcpu\arm\common\backtrace.o
 .rodata        0x00000000       0x19 build\kernel\libcpu\arm\common\backtrace.o
 .text.rt_hw_backtrace
                0x00000000       0x78 build\kernel\libcpu\arm\common\backtrace.o
 .debug_info    0x00000000       0xec build\kernel\libcpu\arm\common\backtrace.o
 .debug_abbrev  0x00000000       0x98 build\kernel\libcpu\arm\common\backtrace.o
 .debug_loc     0x00000000       0x50 build\kernel\libcpu\arm\common\backtrace.o
 .debug_aranges
                0x00000000       0x20 build\kernel\libcpu\arm\common\backtrace.o
 .debug_ranges  0x00000000       0x10 build\kernel\libcpu\arm\common\backtrace.o
 .debug_line    0x00000000       0xc4 build\kernel\libcpu\arm\common\backtrace.o
 .debug_str     0x00000000      0x1fc build\kernel\libcpu\arm\common\backtrace.o
 .comment       0x00000000       0x6f build\kernel\libcpu\arm\common\backtrace.o
 .debug_frame   0x00000000       0x34 build\kernel\libcpu\arm\common\backtrace.o
 .ARM.attributes
                0x00000000       0x39 build\kernel\libcpu\arm\common\backtrace.o
 .text          0x00000000        0x0 build\kernel\libcpu\arm\common\div0.o
 .data          0x00000000        0x0 build\kernel\libcpu\arm\common\div0.o
 .bss           0x00000000        0x0 build\kernel\libcpu\arm\common\div0.o
 .text.__div0   0x00000000        0x8 build\kernel\libcpu\arm\common\div0.o
 .debug_info    0x00000000       0x3c build\kernel\libcpu\arm\common\div0.o
 .debug_abbrev  0x00000000       0x2c build\kernel\libcpu\arm\common\div0.o
 .debug_loc     0x00000000       0x2c build\kernel\libcpu\arm\common\div0.o
 .debug_aranges
                0x00000000       0x20 build\kernel\libcpu\arm\common\div0.o
 .debug_ranges  0x00000000       0x10 build\kernel\libcpu\arm\common\div0.o
 .debug_line    0x00000000       0x6c build\kernel\libcpu\arm\common\div0.o
 .debug_str     0x00000000       0xf8 build\kernel\libcpu\arm\common\div0.o
 .comment       0x00000000       0x6f build\kernel\libcpu\arm\common\div0.o
 .debug_frame   0x00000000       0x28 build\kernel\libcpu\arm\common\div0.o
 .ARM.attributes
                0x00000000       0x39 build\kernel\libcpu\arm\common\div0.o
 .text          0x00000000        0x0 build\kernel\libcpu\arm\common\showmem.o
 .data          0x00000000        0x0 build\kernel\libcpu\arm\common\showmem.o
 .bss           0x00000000        0x0 build\kernel\libcpu\arm\common\showmem.o
 .rodata        0x00000000       0x22 build\kernel\libcpu\arm\common\showmem.o
 .text.rt_hw_show_memory
                0x00000000       0x94 build\kernel\libcpu\arm\common\showmem.o
 .rodata.__FUNCTION__.5186
                0x00000000       0x12 build\kernel\libcpu\arm\common\showmem.o
 .debug_info    0x00000000      0x102 build\kernel\libcpu\arm\common\showmem.o
 .debug_abbrev  0x00000000       0x97 build\kernel\libcpu\arm\common\showmem.o
 .debug_loc     0x00000000       0x50 build\kernel\libcpu\arm\common\showmem.o
 .debug_aranges
                0x00000000       0x20 build\kernel\libcpu\arm\common\showmem.o
 .debug_ranges  0x00000000       0x10 build\kernel\libcpu\arm\common\showmem.o
 .debug_line    0x00000000       0xcd build\kernel\libcpu\arm\common\showmem.o
 .debug_str     0x00000000      0x1fb build\kernel\libcpu\arm\common\showmem.o
 .comment       0x00000000       0x6f build\kernel\libcpu\arm\common\showmem.o
 .debug_frame   0x00000000       0x34 build\kernel\libcpu\arm\common\showmem.o
 .ARM.attributes
                0x00000000       0x39 build\kernel\libcpu\arm\common\showmem.o
 .text          0x00000000        0x0 build\kernel\libcpu\arm\cortex-m4\cpuport.o
 .data          0x00000000        0x0 build\kernel\libcpu\arm\cortex-m4\cpuport.o
 .bss           0x00000000        0x0 build\kernel\libcpu\arm\cortex-m4\cpuport.o
 .text.rt_hw_exception_install
                0x00000000       0x20 build\kernel\libcpu\arm\cortex-m4\cpuport.o
 .text.rt_hw_cpu_shutdown
                0x00000000       0x28 build\kernel\libcpu\arm\cortex-m4\cpuport.o
 .rodata.__FUNCTION__.5303
                0x00000000       0x13 build\kernel\libcpu\arm\cortex-m4\cpuport.o
 .data          0x00000000        0x0 build\kernel\libcpu\arm\cortex-m4\context_gcc.o
 .bss           0x00000000        0x0 build\kernel\libcpu\arm\cortex-m4\context_gcc.o
 .text          0x00000000        0x0 build\kernel\components\drivers\misc\pin.o
 .data          0x00000000        0x0 build\kernel\components\drivers\misc\pin.o
 .bss           0x00000000        0x0 build\kernel\components\drivers\misc\pin.o
 .text.rt_pin_attach_irq
                0x00000000       0x58 build\kernel\components\drivers\misc\pin.o
 .text.rt_pin_detach_irq
                0x00000000       0x4c build\kernel\components\drivers\misc\pin.o
 .text.rt_pin_irq_enable
                0x00000000       0x50 build\kernel\components\drivers\misc\pin.o
 .rodata.__FUNCTION__.5832
                0x00000000       0x12 build\kernel\components\drivers\misc\pin.o
 .rodata.__FUNCTION__.5836
                0x00000000       0x12 build\kernel\components\drivers\misc\pin.o
 .rodata.__FUNCTION__.5841
                0x00000000       0x12 build\kernel\components\drivers\misc\pin.o
 .text          0x00000000        0x0 build\kernel\components\drivers\serial\serial.o
 .data          0x00000000        0x0 build\kernel\components\drivers\serial\serial.o
 .bss           0x00000000        0x0 build\kernel\components\drivers\serial\serial.o
 .text          0x00000000        0x0 build\kernel\components\drivers\src\completion.o
 .data          0x00000000        0x0 build\kernel\components\drivers\src\completion.o
 .bss           0x00000000        0x0 build\kernel\components\drivers\src\completion.o
 .text          0x00000000        0x0 build\kernel\components\drivers\src\dataqueue.o
 .data          0x00000000        0x0 build\kernel\components\drivers\src\dataqueue.o
 .bss           0x00000000        0x0 build\kernel\components\drivers\src\dataqueue.o
 .text.rt_data_queue_reset
                0x00000000       0x8c build\kernel\components\drivers\src\dataqueue.o
 .text          0x00000000        0x0 build\kernel\components\drivers\src\pipe.o
 .data          0x00000000        0x0 build\kernel\components\drivers\src\pipe.o
 .bss           0x00000000        0x0 build\kernel\components\drivers\src\pipe.o
 .text.rt_list_init
                0x00000000       0x24 build\kernel\components\drivers\src\pipe.o
 .rodata        0x00000000       0x23 build\kernel\components\drivers\src\pipe.o
 .text.rt_wqueue_init
                0x00000000       0x38 build\kernel\components\drivers\src\pipe.o
 .text.rt_pipe_open
                0x00000000       0x58 build\kernel\components\drivers\src\pipe.o
 .text.rt_pipe_close
                0x00000000       0x54 build\kernel\components\drivers\src\pipe.o
 .text.rt_pipe_read
                0x00000000       0x94 build\kernel\components\drivers\src\pipe.o
 .text.rt_pipe_write
                0x00000000       0x94 build\kernel\components\drivers\src\pipe.o
 .text.rt_pipe_control
                0x00000000       0x1c build\kernel\components\drivers\src\pipe.o
 .text.rt_pipe_create
                0x00000000       0xec build\kernel\components\drivers\src\pipe.o
 .text.rt_pipe_delete
                0x00000000       0x7c build\kernel\components\drivers\src\pipe.o
 .rodata.__FUNCTION__.5689
                0x00000000        0xf build\kernel\components\drivers\src\pipe.o
 .rodata.__FUNCTION__.5420
                0x00000000        0xf build\kernel\components\drivers\src\pipe.o
 .debug_info    0x00000000      0xb4d build\kernel\components\drivers\src\pipe.o
 .debug_abbrev  0x00000000      0x202 build\kernel\components\drivers\src\pipe.o
 .debug_loc     0x00000000      0x2e8 build\kernel\components\drivers\src\pipe.o
 .debug_aranges
                0x00000000       0x60 build\kernel\components\drivers\src\pipe.o
 .debug_ranges  0x00000000       0x80 build\kernel\components\drivers\src\pipe.o
 .debug_line    0x00000000      0x286 build\kernel\components\drivers\src\pipe.o
 .debug_str     0x00000000      0x7d8 build\kernel\components\drivers\src\pipe.o
 .comment       0x00000000       0x6f build\kernel\components\drivers\src\pipe.o
 .debug_frame   0x00000000      0x15c build\kernel\components\drivers\src\pipe.o
 .ARM.attributes
                0x00000000       0x39 build\kernel\components\drivers\src\pipe.o
 .text          0x00000000        0x0 build\kernel\components\drivers\src\ringblk_buf.o
 .data          0x00000000        0x0 build\kernel\components\drivers\src\ringblk_buf.o
 .bss           0x00000000        0x0 build\kernel\components\drivers\src\ringblk_buf.o
 .text.rt_slist_init
                0x00000000       0x1c build\kernel\components\drivers\src\ringblk_buf.o
 .text.rt_slist_append
                0x00000000       0x38 build\kernel\components\drivers\src\ringblk_buf.o
 .text.rt_slist_len
                0x00000000       0x34 build\kernel\components\drivers\src\ringblk_buf.o
 .text.rt_slist_remove
                0x00000000       0x48 build\kernel\components\drivers\src\ringblk_buf.o
 .text.rt_slist_first
                0x00000000       0x18 build\kernel\components\drivers\src\ringblk_buf.o
 .text.rt_slist_tail
                0x00000000       0x28 build\kernel\components\drivers\src\ringblk_buf.o
 .text.rt_slist_next
                0x00000000       0x18 build\kernel\components\drivers\src\ringblk_buf.o
 .text.rt_slist_isempty
                0x00000000       0x24 build\kernel\components\drivers\src\ringblk_buf.o
 .rodata        0x00000000       0x86 build\kernel\components\drivers\src\ringblk_buf.o
 .text.rt_rbb_init
                0x00000000       0xa0 build\kernel\components\drivers\src\ringblk_buf.o
 .text.rt_rbb_create
                0x00000000       0x7c build\kernel\components\drivers\src\ringblk_buf.o
 .text.rt_rbb_destroy
                0x00000000       0x44 build\kernel\components\drivers\src\ringblk_buf.o
 .text.find_empty_blk_in_set
                0x00000000       0x68 build\kernel\components\drivers\src\ringblk_buf.o
 .text.rt_rbb_blk_alloc
                0x00000000      0x200 build\kernel\components\drivers\src\ringblk_buf.o
 .text.rt_rbb_blk_put
                0x00000000       0x44 build\kernel\components\drivers\src\ringblk_buf.o
 .text.rt_rbb_blk_get
                0x00000000       0x88 build\kernel\components\drivers\src\ringblk_buf.o
 .text.rt_rbb_blk_size
                0x00000000       0x34 build\kernel\components\drivers\src\ringblk_buf.o
 .text.rt_rbb_blk_buf
                0x00000000       0x30 build\kernel\components\drivers\src\ringblk_buf.o
 .text.rt_rbb_blk_free
                0x00000000       0x80 build\kernel\components\drivers\src\ringblk_buf.o
 .text.rt_rbb_blk_queue_get
                0x00000000      0x118 build\kernel\components\drivers\src\ringblk_buf.o
 .text.rt_rbb_blk_queue_len
                0x00000000       0x64 build\kernel\components\drivers\src\ringblk_buf.o
 .text.rt_rbb_blk_queue_buf
                0x00000000       0x30 build\kernel\components\drivers\src\ringblk_buf.o
 .text.rt_rbb_blk_queue_free
                0x00000000       0x70 build\kernel\components\drivers\src\ringblk_buf.o
 .text.rt_rbb_next_blk_queue_len
                0x00000000       0xb8 build\kernel\components\drivers\src\ringblk_buf.o
 .text.rt_rbb_get_buf_size
                0x00000000       0x30 build\kernel\components\drivers\src\ringblk_buf.o
 .rodata.__FUNCTION__.5651
                0x00000000        0xc build\kernel\components\drivers\src\ringblk_buf.o
 .rodata.__FUNCTION__.5665
                0x00000000        0xf build\kernel\components\drivers\src\ringblk_buf.o
 .rodata.__FUNCTION__.5670
                0x00000000       0x16 build\kernel\components\drivers\src\ringblk_buf.o
 .rodata.__FUNCTION__.5684
                0x00000000       0x11 build\kernel\components\drivers\src\ringblk_buf.o
 .rodata.__FUNCTION__.5688
                0x00000000        0xf build\kernel\components\drivers\src\ringblk_buf.o
 .rodata.__FUNCTION__.5695
                0x00000000        0xf build\kernel\components\drivers\src\ringblk_buf.o
 .rodata.__FUNCTION__.5703
                0x00000000       0x10 build\kernel\components\drivers\src\ringblk_buf.o
 .rodata.__FUNCTION__.5707
                0x00000000        0xf build\kernel\components\drivers\src\ringblk_buf.o
 .rodata.__FUNCTION__.5713
                0x00000000       0x10 build\kernel\components\drivers\src\ringblk_buf.o
 .rodata.__FUNCTION__.5724
                0x00000000       0x15 build\kernel\components\drivers\src\ringblk_buf.o
 .rodata.__FUNCTION__.5734
                0x00000000       0x15 build\kernel\components\drivers\src\ringblk_buf.o
 .rodata.__FUNCTION__.5741
                0x00000000       0x15 build\kernel\components\drivers\src\ringblk_buf.o
 .rodata.__FUNCTION__.5747
                0x00000000       0x16 build\kernel\components\drivers\src\ringblk_buf.o
 .rodata.__FUNCTION__.5759
                0x00000000       0x1a build\kernel\components\drivers\src\ringblk_buf.o
 .rodata.__FUNCTION__.5767
                0x00000000       0x14 build\kernel\components\drivers\src\ringblk_buf.o
 .debug_info    0x00000000      0xa6d build\kernel\components\drivers\src\ringblk_buf.o
 .debug_abbrev  0x00000000      0x22c build\kernel\components\drivers\src\ringblk_buf.o
 .debug_loc     0x00000000      0x7e0 build\kernel\components\drivers\src\ringblk_buf.o
 .debug_aranges
                0x00000000       0xd8 build\kernel\components\drivers\src\ringblk_buf.o
 .debug_ranges  0x00000000       0xc8 build\kernel\components\drivers\src\ringblk_buf.o
 .debug_line    0x00000000      0x4d3 build\kernel\components\drivers\src\ringblk_buf.o
 .debug_str     0x00000000      0x535 build\kernel\components\drivers\src\ringblk_buf.o
 .comment       0x00000000       0x6f build\kernel\components\drivers\src\ringblk_buf.o
 .debug_frame   0x00000000      0x390 build\kernel\components\drivers\src\ringblk_buf.o
 .ARM.attributes
                0x00000000       0x39 build\kernel\components\drivers\src\ringblk_buf.o
 .text          0x00000000        0x0 build\kernel\components\drivers\src\ringbuffer.o
 .data          0x00000000        0x0 build\kernel\components\drivers\src\ringbuffer.o
 .bss           0x00000000        0x0 build\kernel\components\drivers\src\ringbuffer.o
 .text.rt_ringbuffer_status
                0x00000000       0x50 build\kernel\components\drivers\src\ringbuffer.o
 .rodata        0x00000000       0x19 build\kernel\components\drivers\src\ringbuffer.o
 .text.rt_ringbuffer_init
                0x00000000       0xa4 build\kernel\components\drivers\src\ringbuffer.o
 .text.rt_ringbuffer_put
                0x00000000      0x16c build\kernel\components\drivers\src\ringbuffer.o
 .text.rt_ringbuffer_put_force
                0x00000000      0x1d0 build\kernel\components\drivers\src\ringbuffer.o
 .text.rt_ringbuffer_get
                0x00000000      0x15c build\kernel\components\drivers\src\ringbuffer.o
 .text.rt_ringbuffer_putchar
                0x00000000       0xb8 build\kernel\components\drivers\src\ringbuffer.o
 .text.rt_ringbuffer_putchar_force
                0x00000000       0xfc build\kernel\components\drivers\src\ringbuffer.o
 .text.rt_ringbuffer_getchar
                0x00000000       0xb4 build\kernel\components\drivers\src\ringbuffer.o
 .text.rt_ringbuffer_data_len
                0x00000000       0x84 build\kernel\components\drivers\src\ringbuffer.o
 .text.rt_ringbuffer_reset
                0x00000000       0x54 build\kernel\components\drivers\src\ringbuffer.o
 .text.rt_ringbuffer_create
                0x00000000       0x74 build\kernel\components\drivers\src\ringbuffer.o
 .text.rt_ringbuffer_destroy
                0x00000000       0x3c build\kernel\components\drivers\src\ringbuffer.o
 .rodata.__FUNCTION__.5666
                0x00000000       0x13 build\kernel\components\drivers\src\ringbuffer.o
 .rodata.__FUNCTION__.5673
                0x00000000       0x12 build\kernel\components\drivers\src\ringbuffer.o
 .rodata.__FUNCTION__.5680
                0x00000000       0x18 build\kernel\components\drivers\src\ringbuffer.o
 .rodata.__FUNCTION__.5687
                0x00000000       0x12 build\kernel\components\drivers\src\ringbuffer.o
 .rodata.__FUNCTION__.5692
                0x00000000       0x16 build\kernel\components\drivers\src\ringbuffer.o
 .rodata.__FUNCTION__.5698
                0x00000000       0x1c build\kernel\components\drivers\src\ringbuffer.o
 .rodata.__FUNCTION__.5703
                0x00000000       0x16 build\kernel\components\drivers\src\ringbuffer.o
 .rodata.__FUNCTION__.5714
                0x00000000       0x14 build\kernel\components\drivers\src\ringbuffer.o
 .rodata.__FUNCTION__.5720
                0x00000000       0x15 build\kernel\components\drivers\src\ringbuffer.o
 .rodata.__FUNCTION__.5725
                0x00000000       0x16 build\kernel\components\drivers\src\ringbuffer.o
 .debug_info    0x00000000      0x5aa build\kernel\components\drivers\src\ringbuffer.o
 .debug_abbrev  0x00000000      0x1b1 build\kernel\components\drivers\src\ringbuffer.o
 .debug_loc     0x00000000      0x3cc build\kernel\components\drivers\src\ringbuffer.o
 .debug_aranges
                0x00000000       0x78 build\kernel\components\drivers\src\ringbuffer.o
 .debug_ranges  0x00000000       0x68 build\kernel\components\drivers\src\ringbuffer.o
 .debug_line    0x00000000      0x28d build\kernel\components\drivers\src\ringbuffer.o
 .debug_str     0x00000000      0x3e8 build\kernel\components\drivers\src\ringbuffer.o
 .comment       0x00000000       0x6f build\kernel\components\drivers\src\ringbuffer.o
 .debug_frame   0x00000000      0x1d4 build\kernel\components\drivers\src\ringbuffer.o
 .ARM.attributes
                0x00000000       0x39 build\kernel\components\drivers\src\ringbuffer.o
 .text          0x00000000        0x0 build\kernel\components\drivers\src\waitqueue.o
 .data          0x00000000        0x0 build\kernel\components\drivers\src\waitqueue.o
 .bss           0x00000000        0x0 build\kernel\components\drivers\src\waitqueue.o
 .text.rt_list_init
                0x00000000       0x24 build\kernel\components\drivers\src\waitqueue.o
 .text.rt_list_insert_before
                0x00000000       0x34 build\kernel\components\drivers\src\waitqueue.o
 .text.rt_list_remove
                0x00000000       0x38 build\kernel\components\drivers\src\waitqueue.o
 .text.rt_list_isempty
                0x00000000       0x24 build\kernel\components\drivers\src\waitqueue.o
 .text.rt_wqueue_add
                0x00000000       0x30 build\kernel\components\drivers\src\waitqueue.o
 .text.rt_wqueue_remove
                0x00000000       0x28 build\kernel\components\drivers\src\waitqueue.o
 .text.__wqueue_default_wake
                0x00000000       0x18 build\kernel\components\drivers\src\waitqueue.o
 .text.rt_wqueue_wakeup
                0x00000000       0x80 build\kernel\components\drivers\src\waitqueue.o
 .rodata        0x00000000       0x2a build\kernel\components\drivers\src\waitqueue.o
 .text.rt_wqueue_wait
                0x00000000       0xf8 build\kernel\components\drivers\src\waitqueue.o
 .rodata.__FUNCTION__.5679
                0x00000000        0xf build\kernel\components\drivers\src\waitqueue.o
 .debug_info    0x00000000      0x6e8 build\kernel\components\drivers\src\waitqueue.o
 .debug_abbrev  0x00000000      0x1c7 build\kernel\components\drivers\src\waitqueue.o
 .debug_loc     0x00000000      0x30e build\kernel\components\drivers\src\waitqueue.o
 .debug_aranges
                0x00000000       0x60 build\kernel\components\drivers\src\waitqueue.o
 .debug_ranges  0x00000000       0x50 build\kernel\components\drivers\src\waitqueue.o
 .debug_line    0x00000000      0x1f9 build\kernel\components\drivers\src\waitqueue.o
 .debug_str     0x00000000      0x4a0 build\kernel\components\drivers\src\waitqueue.o
 .comment       0x00000000       0x6f build\kernel\components\drivers\src\waitqueue.o
 .debug_frame   0x00000000      0x16c build\kernel\components\drivers\src\waitqueue.o
 .ARM.attributes
                0x00000000       0x39 build\kernel\components\drivers\src\waitqueue.o
 .text          0x00000000        0x0 build\kernel\components\drivers\src\workqueue.o
 .data          0x00000000        0x0 build\kernel\components\drivers\src\workqueue.o
 .bss           0x00000000        0x0 build\kernel\components\drivers\src\workqueue.o
 .text.rt_list_init
                0x00000000       0x24 build\kernel\components\drivers\src\workqueue.o
 .text.rt_list_insert_after
                0x00000000       0x34 build\kernel\components\drivers\src\workqueue.o
 .text.rt_list_remove
                0x00000000       0x38 build\kernel\components\drivers\src\workqueue.o
 .text.rt_list_isempty
                0x00000000       0x24 build\kernel\components\drivers\src\workqueue.o
 .text.rt_work_init
                0x00000000       0x3c build\kernel\components\drivers\src\workqueue.o
 .text._workqueue_work_completion
                0x00000000       0x4c build\kernel\components\drivers\src\workqueue.o
 .rodata        0x00000000       0x34 build\kernel\components\drivers\src\workqueue.o
 .text._workqueue_thread_entry
                0x00000000       0xa0 build\kernel\components\drivers\src\workqueue.o
 .text._workqueue_submit_work
                0x00000000       0x90 build\kernel\components\drivers\src\workqueue.o
 .text._workqueue_cancel_work
                0x00000000       0x4c build\kernel\components\drivers\src\workqueue.o
 .text._workqueue_cancel_delayed_work
                0x00000000       0xa4 build\kernel\components\drivers\src\workqueue.o
 .text._workqueue_submit_delayed_work
                0x00000000       0xbc build\kernel\components\drivers\src\workqueue.o
 .text._delayed_work_timeout_handler
                0x00000000       0x5c build\kernel\components\drivers\src\workqueue.o
 .text.rt_workqueue_create
                0x00000000       0x8c build\kernel\components\drivers\src\workqueue.o
 .text.rt_workqueue_destroy
                0x00000000       0x3c build\kernel\components\drivers\src\workqueue.o
 .text.rt_workqueue_dowork
                0x00000000       0x4c build\kernel\components\drivers\src\workqueue.o
 .text.rt_workqueue_submit_work
                0x00000000       0x7c build\kernel\components\drivers\src\workqueue.o
 .text.rt_workqueue_critical_work
                0x00000000       0x9c build\kernel\components\drivers\src\workqueue.o
 .text.rt_workqueue_cancel_work
                0x00000000       0x64 build\kernel\components\drivers\src\workqueue.o
 .text.rt_workqueue_cancel_work_sync
                0x00000000       0x80 build\kernel\components\drivers\src\workqueue.o
 .text.rt_workqueue_cancel_all_work
                0x00000000       0x54 build\kernel\components\drivers\src\workqueue.o
 .text.rt_delayed_work_init
                0x00000000       0x20 build\kernel\components\drivers\src\workqueue.o
 .rodata.__FUNCTION__.5657
                0x00000000       0x18 build\kernel\components\drivers\src\workqueue.o
 .rodata.__FUNCTION__.5697
                0x00000000       0x15 build\kernel\components\drivers\src\workqueue.o
 .rodata.__FUNCTION__.5702
                0x00000000       0x14 build\kernel\components\drivers\src\workqueue.o
 .rodata.__FUNCTION__.5708
                0x00000000       0x19 build\kernel\components\drivers\src\workqueue.o
 .rodata.__FUNCTION__.5714
                0x00000000       0x1b build\kernel\components\drivers\src\workqueue.o
 .rodata.__FUNCTION__.5719
                0x00000000       0x19 build\kernel\components\drivers\src\workqueue.o
 .rodata.__FUNCTION__.5725
                0x00000000       0x1e build\kernel\components\drivers\src\workqueue.o
 .rodata.__FUNCTION__.5731
                0x00000000       0x1d build\kernel\components\drivers\src\workqueue.o
 .debug_info    0x00000000      0xbb6 build\kernel\components\drivers\src\workqueue.o
 .debug_abbrev  0x00000000      0x21b build\kernel\components\drivers\src\workqueue.o
 .debug_loc     0x00000000      0x6a8 build\kernel\components\drivers\src\workqueue.o
 .debug_aranges
                0x00000000       0xc0 build\kernel\components\drivers\src\workqueue.o
 .debug_ranges  0x00000000       0xb0 build\kernel\components\drivers\src\workqueue.o
 .debug_line    0x00000000      0x39b build\kernel\components\drivers\src\workqueue.o
 .debug_str     0x00000000      0x66c build\kernel\components\drivers\src\workqueue.o
 .comment       0x00000000       0x6f build\kernel\components\drivers\src\workqueue.o
 .debug_frame   0x00000000      0x314 build\kernel\components\drivers\src\workqueue.o
 .ARM.attributes
                0x00000000       0x39 build\kernel\components\drivers\src\workqueue.o
 .text          0x00000000        0x0 build\kernel\components\finsh\shell.o
 .data          0x00000000        0x0 build\kernel\components\finsh\shell.o
 .bss           0x00000000        0x0 build\kernel\components\finsh\shell.o
 .text.finsh_set_prompt
                0x00000000       0x60 build\kernel\components\finsh\shell.o
 .text.finsh_get_prompt_mode
                0x00000000       0x34 build\kernel\components\finsh\shell.o
 .text.finsh_get_device
                0x00000000       0x30 build\kernel\components\finsh\shell.o
 .text.finsh_set_echo
                0x00000000       0x4c build\kernel\components\finsh\shell.o
 .text.finsh_get_echo
                0x00000000       0x38 build\kernel\components\finsh\shell.o
 .rodata.__FUNCTION__.5541
                0x00000000       0x16 build\kernel\components\finsh\shell.o
 .rodata.__FUNCTION__.5566
                0x00000000       0x11 build\kernel\components\finsh\shell.o
 .rodata.__FUNCTION__.5570
                0x00000000        0xf build\kernel\components\finsh\shell.o
 .rodata.__FUNCTION__.5573
                0x00000000        0xf build\kernel\components\finsh\shell.o
 .text          0x00000000        0x0 build\kernel\components\finsh\cmd.o
 .data          0x00000000        0x0 build\kernel\components\finsh\cmd.o
 .bss           0x00000000        0x0 build\kernel\components\finsh\cmd.o
 .text          0x00000000        0x0 build\kernel\components\finsh\msh.o
 .data          0x00000000        0x0 build\kernel\components\finsh\msh.o
 .bss           0x00000000        0x0 build\kernel\components\finsh\msh.o
 .text          0x00000000        0x0 build\kernel\components\libc\compilers\minilibc\ctype.o
 .data          0x00000000        0x0 build\kernel\components\libc\compilers\minilibc\ctype.o
 .bss           0x00000000        0x0 build\kernel\components\libc\compilers\minilibc\ctype.o
 .text.isprint  0x00000000       0x30 build\kernel\components\libc\compilers\minilibc\ctype.o
 .text.isalpha  0x00000000       0x28 build\kernel\components\libc\compilers\minilibc\ctype.o
 .text.isdigit  0x00000000       0x24 build\kernel\components\libc\compilers\minilibc\ctype.o
 .text.isspace  0x00000000       0x28 build\kernel\components\libc\compilers\minilibc\ctype.o
 .debug_info    0x00000000      0x12a build\kernel\components\libc\compilers\minilibc\ctype.o
 .debug_abbrev  0x00000000       0x71 build\kernel\components\libc\compilers\minilibc\ctype.o
 .debug_loc     0x00000000      0x170 build\kernel\components\libc\compilers\minilibc\ctype.o
 .debug_aranges
                0x00000000       0x38 build\kernel\components\libc\compilers\minilibc\ctype.o
 .debug_ranges  0x00000000       0x28 build\kernel\components\libc\compilers\minilibc\ctype.o
 .debug_line    0x00000000       0xc6 build\kernel\components\libc\compilers\minilibc\ctype.o
 .debug_str     0x00000000      0x1f5 build\kernel\components\libc\compilers\minilibc\ctype.o
 .comment       0x00000000       0x6f build\kernel\components\libc\compilers\minilibc\ctype.o
 .debug_frame   0x00000000       0xb0 build\kernel\components\libc\compilers\minilibc\ctype.o
 .ARM.attributes
                0x00000000       0x39 build\kernel\components\libc\compilers\minilibc\ctype.o
 .text          0x00000000        0x0 build\kernel\components\libc\compilers\minilibc\math.o
 .data          0x00000000        0x0 build\kernel\components\libc\compilers\minilibc\math.o
 .bss           0x00000000        0x0 build\kernel\components\libc\compilers\minilibc\math.o
 .data.cos_off_tbl
                0x00000000       0x20 build\kernel\components\libc\compilers\minilibc\math.o
 .data.cos_sign_tbl
                0x00000000       0x20 build\kernel\components\libc\compilers\minilibc\math.o
 .data.sin_off_tbl
                0x00000000       0x20 build\kernel\components\libc\compilers\minilibc\math.o
 .data.sin_sign_tbl
                0x00000000       0x20 build\kernel\components\libc\compilers\minilibc\math.o
 .text.sin      0x00000000      0x2c8 build\kernel\components\libc\compilers\minilibc\math.o
 .text.cos      0x00000000      0x2c8 build\kernel\components\libc\compilers\minilibc\math.o
 .debug_info    0x00000000      0x13e build\kernel\components\libc\compilers\minilibc\math.o
 .debug_abbrev  0x00000000       0x85 build\kernel\components\libc\compilers\minilibc\math.o
 .debug_loc     0x00000000       0xa0 build\kernel\components\libc\compilers\minilibc\math.o
 .debug_aranges
                0x00000000       0x28 build\kernel\components\libc\compilers\minilibc\math.o
 .debug_ranges  0x00000000       0x18 build\kernel\components\libc\compilers\minilibc\math.o
 .debug_line    0x00000000       0xc6 build\kernel\components\libc\compilers\minilibc\math.o
 .debug_str     0x00000000      0x15a build\kernel\components\libc\compilers\minilibc\math.o
 .comment       0x00000000       0x6f build\kernel\components\libc\compilers\minilibc\math.o
 .debug_frame   0x00000000       0x60 build\kernel\components\libc\compilers\minilibc\math.o
 .ARM.attributes
                0x00000000       0x39 build\kernel\components\libc\compilers\minilibc\math.o
 .text          0x00000000        0x0 build\kernel\components\libc\compilers\minilibc\qsort.o
 .data          0x00000000        0x0 build\kernel\components\libc\compilers\minilibc\qsort.o
 .bss           0x00000000        0x0 build\kernel\components\libc\compilers\minilibc\qsort.o
 .text.exch     0x00000000       0x64 build\kernel\components\libc\compilers\minilibc\qsort.o
 .text.quicksort
                0x00000000      0x190 build\kernel\components\libc\compilers\minilibc\qsort.o
 .text.qsort    0x00000000       0x48 build\kernel\components\libc\compilers\minilibc\qsort.o
 .debug_info    0x00000000      0x20a build\kernel\components\libc\compilers\minilibc\qsort.o
 .debug_abbrev  0x00000000       0xde build\kernel\components\libc\compilers\minilibc\qsort.o
 .debug_loc     0x00000000       0xfc build\kernel\components\libc\compilers\minilibc\qsort.o
 .debug_aranges
                0x00000000       0x30 build\kernel\components\libc\compilers\minilibc\qsort.o
 .debug_ranges  0x00000000       0x20 build\kernel\components\libc\compilers\minilibc\qsort.o
 .debug_line    0x00000000      0x156 build\kernel\components\libc\compilers\minilibc\qsort.o
 .debug_str     0x00000000      0x18c build\kernel\components\libc\compilers\minilibc\qsort.o
 .comment       0x00000000       0x6f build\kernel\components\libc\compilers\minilibc\qsort.o
 .debug_frame   0x00000000       0x84 build\kernel\components\libc\compilers\minilibc\qsort.o
 .ARM.attributes
                0x00000000       0x39 build\kernel\components\libc\compilers\minilibc\qsort.o
 .text          0x00000000        0x0 build\kernel\components\libc\compilers\minilibc\rand.o
 .data          0x00000000        0x0 build\kernel\components\libc\compilers\minilibc\rand.o
 .bss           0x00000000        0x0 build\kernel\components\libc\compilers\minilibc\rand.o
 .data._seed    0x00000000        0x4 build\kernel\components\libc\compilers\minilibc\rand.o
 .text.rand_r   0x00000000       0x74 build\kernel\components\libc\compilers\minilibc\rand.o
 .text.rand     0x00000000       0x14 build\kernel\components\libc\compilers\minilibc\rand.o
 .text.srand    0x00000000       0x20 build\kernel\components\libc\compilers\minilibc\rand.o
 .debug_info    0x00000000      0x108 build\kernel\components\libc\compilers\minilibc\rand.o
 .debug_abbrev  0x00000000       0xcc build\kernel\components\libc\compilers\minilibc\rand.o
 .debug_loc     0x00000000       0xe4 build\kernel\components\libc\compilers\minilibc\rand.o
 .debug_aranges
                0x00000000       0x30 build\kernel\components\libc\compilers\minilibc\rand.o
 .debug_ranges  0x00000000       0x20 build\kernel\components\libc\compilers\minilibc\rand.o
 .debug_line    0x00000000       0xae build\kernel\components\libc\compilers\minilibc\rand.o
 .debug_str     0x00000000      0x1ab build\kernel\components\libc\compilers\minilibc\rand.o
 .comment       0x00000000       0x6f build\kernel\components\libc\compilers\minilibc\rand.o
 .debug_frame   0x00000000       0x7c build\kernel\components\libc\compilers\minilibc\rand.o
 .ARM.attributes
                0x00000000       0x39 build\kernel\components\libc\compilers\minilibc\rand.o
 .text          0x00000000        0x0 build\kernel\components\libc\compilers\minilibc\stdlib.o
 .data          0x00000000        0x0 build\kernel\components\libc\compilers\minilibc\stdlib.o
 .bss           0x00000000        0x0 build\kernel\components\libc\compilers\minilibc\stdlib.o
 .text.atoi     0x00000000       0x88 build\kernel\components\libc\compilers\minilibc\stdlib.o
 .text.atol     0x00000000       0x84 build\kernel\components\libc\compilers\minilibc\stdlib.o
 .text.free     0x00000000       0x18 build\kernel\components\libc\compilers\minilibc\stdlib.o
 .text.realloc  0x00000000       0x1c build\kernel\components\libc\compilers\minilibc\stdlib.o
 .text.calloc   0x00000000       0x1c build\kernel\components\libc\compilers\minilibc\stdlib.o
 .text          0x00000000        0x0 build\kernel\components\libc\compilers\minilibc\string.o
 .data          0x00000000        0x0 build\kernel\components\libc\compilers\minilibc\string.o
 .bss           0x00000000        0x0 build\kernel\components\libc\compilers\minilibc\string.o
 .text.strcpy   0x00000000       0x28 build\kernel\components\libc\compilers\minilibc\string.o
 .text.strlcpy  0x00000000       0x64 build\kernel\components\libc\compilers\minilibc\string.o
 .text.strcmp   0x00000000       0x44 build\kernel\components\libc\compilers\minilibc\string.o
 .text.strcat   0x00000000       0x44 build\kernel\components\libc\compilers\minilibc\string.o
 .text.strncat  0x00000000       0x60 build\kernel\components\libc\compilers\minilibc\string.o
 .text.strrchr  0x00000000       0x38 build\kernel\components\libc\compilers\minilibc\string.o
 .text.strncasecmp
                0x00000000       0x64 build\kernel\components\libc\compilers\minilibc\string.o
 .text.skip_atoi
                0x00000000       0x40 build\kernel\components\libc\compilers\minilibc\string.o
 .data._ctype   0x00000000      0x100 build\kernel\components\libc\compilers\minilibc\string.o
 .text.__tolower
                0x00000000       0x30 build\kernel\components\libc\compilers\minilibc\string.o
 .text.__toupper
                0x00000000       0x30 build\kernel\components\libc\compilers\minilibc\string.o
 .text.tolower  0x00000000       0x1c build\kernel\components\libc\compilers\minilibc\string.o
 .text.toupper  0x00000000       0x1c build\kernel\components\libc\compilers\minilibc\string.o
 .text.simple_strtoul
                0x00000000       0xf0 build\kernel\components\libc\compilers\minilibc\string.o
 .text.simple_strtol
                0x00000000       0x3c build\kernel\components\libc\compilers\minilibc\string.o
 .text.simple_strtoull
                0x00000000      0x120 build\kernel\components\libc\compilers\minilibc\string.o
 .text.simple_strtoll
                0x00000000       0x48 build\kernel\components\libc\compilers\minilibc\string.o
 .text.vsscanf  0x00000000      0x5f8 build\kernel\components\libc\compilers\minilibc\string.o
 .text.sscanf   0x00000000       0x2c build\kernel\components\libc\compilers\minilibc\string.o
 .text.strspn   0x00000000       0x7c build\kernel\components\libc\compilers\minilibc\string.o
 .text.strcspn  0x00000000       0x78 build\kernel\components\libc\compilers\minilibc\string.o
 .text.strtok_r
                0x00000000       0x6c build\kernel\components\libc\compilers\minilibc\string.o
 .text.strtok   0x00000000       0x24 build\kernel\components\libc\compilers\minilibc\string.o
 .text.strchr   0x00000000       0x48 build\kernel\components\libc\compilers\minilibc\string.o
 .text.strtol   0x00000000       0x24 build\kernel\components\libc\compilers\minilibc\string.o
 .text.strtoll  0x00000000       0x28 build\kernel\components\libc\compilers\minilibc\string.o
 .bss.strtok_pos.5514
                0x00000000        0x4 build\kernel\components\libc\compilers\minilibc\string.o
 .text          0x00000000        0x0 build\kernel\components\libc\compilers\minilibc\time.o
 .data          0x00000000        0x0 build\kernel\components\libc\compilers\minilibc\time.o
 .bss           0x00000000        0x0 build\kernel\components\libc\compilers\minilibc\time.o
 .rodata.__spm  0x00000000       0x1a build\kernel\components\libc\compilers\minilibc\time.o
 .bss.timezone  0x00000000        0x4 build\kernel\components\libc\compilers\minilibc\time.o
 .rodata.days   0x00000000       0x1d build\kernel\components\libc\compilers\minilibc\time.o
 .rodata.months
                0x00000000       0x31 build\kernel\components\libc\compilers\minilibc\time.o
 .text.__isleap
                0x00000000       0x60 build\kernel\components\libc\compilers\minilibc\time.o
 .text.gmtime_r
                0x00000000      0x160 build\kernel\components\libc\compilers\minilibc\time.o
 .text.localtime_r
                0x00000000       0x58 build\kernel\components\libc\compilers\minilibc\time.o
 .text.localtime
                0x00000000       0x20 build\kernel\components\libc\compilers\minilibc\time.o
 .text.mktime   0x00000000      0x264 build\kernel\components\libc\compilers\minilibc\time.o
 .text.num2str  0x00000000       0x58 build\kernel\components\libc\compilers\minilibc\time.o
 .text.asctime_r
                0x00000000      0x110 build\kernel\components\libc\compilers\minilibc\time.o
 .text.asctime  0x00000000       0x20 build\kernel\components\libc\compilers\minilibc\time.o
 .text.ctime    0x00000000       0x20 build\kernel\components\libc\compilers\minilibc\time.o
 .rodata        0x00000000       0x16 build\kernel\components\libc\compilers\minilibc\time.o
 .text.gettimeofday
                0x00000000       0x58 build\kernel\components\libc\compilers\minilibc\time.o
 .text._gettimeofday
                0x00000000       0x24 build\kernel\components\libc\compilers\minilibc\time.o
 .text.time     0x00000000       0x28 build\kernel\components\libc\compilers\minilibc\time.o
 .text.clock    0x00000000       0x10 build\kernel\components\libc\compilers\minilibc\time.o
 .bss.tmp.5208  0x00000000       0x2c build\kernel\components\libc\compilers\minilibc\time.o
 .bss.buf.5229  0x00000000       0x19 build\kernel\components\libc\compilers\minilibc\time.o
 .rodata.__FUNCTION__.5239
                0x00000000        0xd build\kernel\components\libc\compilers\minilibc\time.o
 .debug_info    0x00000000      0x906 build\kernel\components\libc\compilers\minilibc\time.o
 .debug_abbrev  0x00000000      0x1b6 build\kernel\components\libc\compilers\minilibc\time.o
 .debug_loc     0x00000000      0x41c build\kernel\components\libc\compilers\minilibc\time.o
 .debug_aranges
                0x00000000       0x80 build\kernel\components\libc\compilers\minilibc\time.o
 .debug_ranges  0x00000000       0x88 build\kernel\components\libc\compilers\minilibc\time.o
 .debug_line    0x00000000      0x29a build\kernel\components\libc\compilers\minilibc\time.o
 .debug_str     0x00000000      0x64c build\kernel\components\libc\compilers\minilibc\time.o
 .comment       0x00000000       0x6f build\kernel\components\libc\compilers\minilibc\time.o
 .debug_frame   0x00000000      0x1f8 build\kernel\components\libc\compilers\minilibc\time.o
 .ARM.attributes
                0x00000000       0x39 build\kernel\components\libc\compilers\minilibc\time.o
 .text          0x00000000        0x0 D:\IOT\rtthread-v4.0\rt-thread\bsp\stm32\libraries\STM32F4xx_HAL\CMSIS\Device\ST\STM32F4xx\Source\Templates\system_stm32f4xx.o
 .data          0x00000000        0x0 D:\IOT\rtthread-v4.0\rt-thread\bsp\stm32\libraries\STM32F4xx_HAL\CMSIS\Device\ST\STM32F4xx\Source\Templates\system_stm32f4xx.o
 .bss           0x00000000        0x0 D:\IOT\rtthread-v4.0\rt-thread\bsp\stm32\libraries\STM32F4xx_HAL\CMSIS\Device\ST\STM32F4xx\Source\Templates\system_stm32f4xx.o
 .text.SystemCoreClockUpdate
                0x00000000       0xf8 D:\IOT\rtthread-v4.0\rt-thread\bsp\stm32\libraries\STM32F4xx_HAL\CMSIS\Device\ST\STM32F4xx\Source\Templates\system_stm32f4xx.o
 .text          0x00000000        0x0 D:\IOT\rtthread-v4.0\rt-thread\bsp\stm32\libraries\STM32F4xx_HAL\STM32F4xx_HAL_Driver\Src\stm32f4xx_hal.o
 .data          0x00000000        0x0 D:\IOT\rtthread-v4.0\rt-thread\bsp\stm32\libraries\STM32F4xx_HAL\STM32F4xx_HAL_Driver\Src\stm32f4xx_hal.o
 .bss           0x00000000        0x0 D:\IOT\rtthread-v4.0\rt-thread\bsp\stm32\libraries\STM32F4xx_HAL\STM32F4xx_HAL_Driver\Src\stm32f4xx_hal.o
 .data.uwTickPrio
                0x00000000        0x4 D:\IOT\rtthread-v4.0\rt-thread\bsp\stm32\libraries\STM32F4xx_HAL\STM32F4xx_HAL_Driver\Src\stm32f4xx_hal.o
 .text.HAL_DeInit
                0x00000000       0x58 D:\IOT\rtthread-v4.0\rt-thread\bsp\stm32\libraries\STM32F4xx_HAL\STM32F4xx_HAL_Driver\Src\stm32f4xx_hal.o
 .text.HAL_MspInit
                0x00000000       0x10 D:\IOT\rtthread-v4.0\rt-thread\bsp\stm32\libraries\STM32F4xx_HAL\STM32F4xx_HAL_Driver\Src\stm32f4xx_hal.o
 .text.HAL_MspDeInit
                0x00000000       0x10 D:\IOT\rtthread-v4.0\rt-thread\bsp\stm32\libraries\STM32F4xx_HAL\STM32F4xx_HAL_Driver\Src\stm32f4xx_hal.o
 .text.HAL_InitTick
                0x00000000       0x60 D:\IOT\rtthread-v4.0\rt-thread\bsp\stm32\libraries\STM32F4xx_HAL\STM32F4xx_HAL_Driver\Src\stm32f4xx_hal.o
 .text.HAL_GetTick
                0x00000000       0x18 D:\IOT\rtthread-v4.0\rt-thread\bsp\stm32\libraries\STM32F4xx_HAL\STM32F4xx_HAL_Driver\Src\stm32f4xx_hal.o
 .text.HAL_GetTickPrio
                0x00000000       0x18 D:\IOT\rtthread-v4.0\rt-thread\bsp\stm32\libraries\STM32F4xx_HAL\STM32F4xx_HAL_Driver\Src\stm32f4xx_hal.o
 .text.HAL_SetTickFreq
                0x00000000       0x40 D:\IOT\rtthread-v4.0\rt-thread\bsp\stm32\libraries\STM32F4xx_HAL\STM32F4xx_HAL_Driver\Src\stm32f4xx_hal.o
 .text.HAL_GetTickFreq
                0x00000000       0x18 D:\IOT\rtthread-v4.0\rt-thread\bsp\stm32\libraries\STM32F4xx_HAL\STM32F4xx_HAL_Driver\Src\stm32f4xx_hal.o
 .text.HAL_Delay
                0x00000000       0x44 D:\IOT\rtthread-v4.0\rt-thread\bsp\stm32\libraries\STM32F4xx_HAL\STM32F4xx_HAL_Driver\Src\stm32f4xx_hal.o
 .text.HAL_SuspendTick
                0x00000000       0x20 D:\IOT\rtthread-v4.0\rt-thread\bsp\stm32\libraries\STM32F4xx_HAL\STM32F4xx_HAL_Driver\Src\stm32f4xx_hal.o
 .text.HAL_ResumeTick
                0x00000000       0x20 D:\IOT\rtthread-v4.0\rt-thread\bsp\stm32\libraries\STM32F4xx_HAL\STM32F4xx_HAL_Driver\Src\stm32f4xx_hal.o
 .text.HAL_GetHalVersion
                0x00000000       0x14 D:\IOT\rtthread-v4.0\rt-thread\bsp\stm32\libraries\STM32F4xx_HAL\STM32F4xx_HAL_Driver\Src\stm32f4xx_hal.o
 .text.HAL_GetREVID
                0x00000000       0x18 D:\IOT\rtthread-v4.0\rt-thread\bsp\stm32\libraries\STM32F4xx_HAL\STM32F4xx_HAL_Driver\Src\stm32f4xx_hal.o
 .text.HAL_GetDEVID
                0x00000000       0x1c D:\IOT\rtthread-v4.0\rt-thread\bsp\stm32\libraries\STM32F4xx_HAL\STM32F4xx_HAL_Driver\Src\stm32f4xx_hal.o
 .text.HAL_DBGMCU_EnableDBGSleepMode
                0x00000000       0x20 D:\IOT\rtthread-v4.0\rt-thread\bsp\stm32\libraries\STM32F4xx_HAL\STM32F4xx_HAL_Driver\Src\stm32f4xx_hal.o
 .text.HAL_DBGMCU_DisableDBGSleepMode
                0x00000000       0x20 D:\IOT\rtthread-v4.0\rt-thread\bsp\stm32\libraries\STM32F4xx_HAL\STM32F4xx_HAL_Driver\Src\stm32f4xx_hal.o
 .text.HAL_DBGMCU_EnableDBGStopMode
                0x00000000       0x20 D:\IOT\rtthread-v4.0\rt-thread\bsp\stm32\libraries\STM32F4xx_HAL\STM32F4xx_HAL_Driver\Src\stm32f4xx_hal.o
 .text.HAL_DBGMCU_DisableDBGStopMode
                0x00000000       0x20 D:\IOT\rtthread-v4.0\rt-thread\bsp\stm32\libraries\STM32F4xx_HAL\STM32F4xx_HAL_Driver\Src\stm32f4xx_hal.o
 .text.HAL_DBGMCU_EnableDBGStandbyMode
                0x00000000       0x20 D:\IOT\rtthread-v4.0\rt-thread\bsp\stm32\libraries\STM32F4xx_HAL\STM32F4xx_HAL_Driver\Src\stm32f4xx_hal.o
 .text.HAL_DBGMCU_DisableDBGStandbyMode
                0x00000000       0x20 D:\IOT\rtthread-v4.0\rt-thread\bsp\stm32\libraries\STM32F4xx_HAL\STM32F4xx_HAL_Driver\Src\stm32f4xx_hal.o
 .text.HAL_EnableCompensationCell
                0x00000000       0x18 D:\IOT\rtthread-v4.0\rt-thread\bsp\stm32\libraries\STM32F4xx_HAL\STM32F4xx_HAL_Driver\Src\stm32f4xx_hal.o
 .text.HAL_DisableCompensationCell
                0x00000000       0x18 D:\IOT\rtthread-v4.0\rt-thread\bsp\stm32\libraries\STM32F4xx_HAL\STM32F4xx_HAL_Driver\Src\stm32f4xx_hal.o
 .text.HAL_GetUIDw0
                0x00000000       0x18 D:\IOT\rtthread-v4.0\rt-thread\bsp\stm32\libraries\STM32F4xx_HAL\STM32F4xx_HAL_Driver\Src\stm32f4xx_hal.o
 .text.HAL_GetUIDw1
                0x00000000       0x18 D:\IOT\rtthread-v4.0\rt-thread\bsp\stm32\libraries\STM32F4xx_HAL\STM32F4xx_HAL_Driver\Src\stm32f4xx_hal.o
 .text.HAL_GetUIDw2
                0x00000000       0x18 D:\IOT\rtthread-v4.0\rt-thread\bsp\stm32\libraries\STM32F4xx_HAL\STM32F4xx_HAL_Driver\Src\stm32f4xx_hal.o
 .text          0x00000000        0x0 D:\IOT\rtthread-v4.0\rt-thread\bsp\stm32\libraries\STM32F4xx_HAL\STM32F4xx_HAL_Driver\Src\stm32f4xx_hal_cec.o
 .data          0x00000000        0x0 D:\IOT\rtthread-v4.0\rt-thread\bsp\stm32\libraries\STM32F4xx_HAL\STM32F4xx_HAL_Driver\Src\stm32f4xx_hal_cec.o
 .bss           0x00000000        0x0 D:\IOT\rtthread-v4.0\rt-thread\bsp\stm32\libraries\STM32F4xx_HAL\STM32F4xx_HAL_Driver\Src\stm32f4xx_hal_cec.o
 .debug_info    0x00000000       0x90 D:\IOT\rtthread-v4.0\rt-thread\bsp\stm32\libraries\STM32F4xx_HAL\STM32F4xx_HAL_Driver\Src\stm32f4xx_hal_cec.o
 .debug_abbrev  0x00000000       0x4b D:\IOT\rtthread-v4.0\rt-thread\bsp\stm32\libraries\STM32F4xx_HAL\STM32F4xx_HAL_Driver\Src\stm32f4xx_hal_cec.o
 .debug_aranges
                0x00000000       0x18 D:\IOT\rtthread-v4.0\rt-thread\bsp\stm32\libraries\STM32F4xx_HAL\STM32F4xx_HAL_Driver\Src\stm32f4xx_hal_cec.o
 .debug_line    0x00000000       0xc8 D:\IOT\rtthread-v4.0\rt-thread\bsp\stm32\libraries\STM32F4xx_HAL\STM32F4xx_HAL_Driver\Src\stm32f4xx_hal_cec.o
 .debug_str     0x00000000      0x20e D:\IOT\rtthread-v4.0\rt-thread\bsp\stm32\libraries\STM32F4xx_HAL\STM32F4xx_HAL_Driver\Src\stm32f4xx_hal_cec.o
 .comment       0x00000000       0x6f D:\IOT\rtthread-v4.0\rt-thread\bsp\stm32\libraries\STM32F4xx_HAL\STM32F4xx_HAL_Driver\Src\stm32f4xx_hal_cec.o
 .ARM.attributes
                0x00000000       0x39 D:\IOT\rtthread-v4.0\rt-thread\bsp\stm32\libraries\STM32F4xx_HAL\STM32F4xx_HAL_Driver\Src\stm32f4xx_hal_cec.o
 .text          0x00000000        0x0 D:\IOT\rtthread-v4.0\rt-thread\bsp\stm32\libraries\STM32F4xx_HAL\STM32F4xx_HAL_Driver\Src\stm32f4xx_hal_cortex.o
 .data          0x00000000        0x0 D:\IOT\rtthread-v4.0\rt-thread\bsp\stm32\libraries\STM32F4xx_HAL\STM32F4xx_HAL_Driver\Src\stm32f4xx_hal_cortex.o
 .bss           0x00000000        0x0 D:\IOT\rtthread-v4.0\rt-thread\bsp\stm32\libraries\STM32F4xx_HAL\STM32F4xx_HAL_Driver\Src\stm32f4xx_hal_cortex.o
 .text.__NVIC_GetPendingIRQ
                0x00000000       0x44 D:\IOT\rtthread-v4.0\rt-thread\bsp\stm32\libraries\STM32F4xx_HAL\STM32F4xx_HAL_Driver\Src\stm32f4xx_hal_cortex.o
 .text.__NVIC_SetPendingIRQ
                0x00000000       0x3c D:\IOT\rtthread-v4.0\rt-thread\bsp\stm32\libraries\STM32F4xx_HAL\STM32F4xx_HAL_Driver\Src\stm32f4xx_hal_cortex.o
 .text.__NVIC_ClearPendingIRQ
                0x00000000       0x3c D:\IOT\rtthread-v4.0\rt-thread\bsp\stm32\libraries\STM32F4xx_HAL\STM32F4xx_HAL_Driver\Src\stm32f4xx_hal_cortex.o
 .text.__NVIC_GetActive
                0x00000000       0x44 D:\IOT\rtthread-v4.0\rt-thread\bsp\stm32\libraries\STM32F4xx_HAL\STM32F4xx_HAL_Driver\Src\stm32f4xx_hal_cortex.o
 .text.__NVIC_GetPriority
                0x00000000       0x50 D:\IOT\rtthread-v4.0\rt-thread\bsp\stm32\libraries\STM32F4xx_HAL\STM32F4xx_HAL_Driver\Src\stm32f4xx_hal_cortex.o
 .text.NVIC_DecodePriority
                0x00000000       0x6c D:\IOT\rtthread-v4.0\rt-thread\bsp\stm32\libraries\STM32F4xx_HAL\STM32F4xx_HAL_Driver\Src\stm32f4xx_hal_cortex.o
 .text.__NVIC_SystemReset
                0x00000000       0x28 D:\IOT\rtthread-v4.0\rt-thread\bsp\stm32\libraries\STM32F4xx_HAL\STM32F4xx_HAL_Driver\Src\stm32f4xx_hal_cortex.o
 .text.HAL_NVIC_SystemReset
                0x00000000        0x8 D:\IOT\rtthread-v4.0\rt-thread\bsp\stm32\libraries\STM32F4xx_HAL\STM32F4xx_HAL_Driver\Src\stm32f4xx_hal_cortex.o
 .text.HAL_MPU_Disable
                0x00000000       0x2c D:\IOT\rtthread-v4.0\rt-thread\bsp\stm32\libraries\STM32F4xx_HAL\STM32F4xx_HAL_Driver\Src\stm32f4xx_hal_cortex.o
 .text.HAL_MPU_Enable
                0x00000000       0x3c D:\IOT\rtthread-v4.0\rt-thread\bsp\stm32\libraries\STM32F4xx_HAL\STM32F4xx_HAL_Driver\Src\stm32f4xx_hal_cortex.o
 .text.HAL_MPU_ConfigRegion
                0x00000000       0x88 D:\IOT\rtthread-v4.0\rt-thread\bsp\stm32\libraries\STM32F4xx_HAL\STM32F4xx_HAL_Driver\Src\stm32f4xx_hal_cortex.o
 .text.HAL_NVIC_GetPriorityGrouping
                0x00000000       0x10 D:\IOT\rtthread-v4.0\rt-thread\bsp\stm32\libraries\STM32F4xx_HAL\STM32F4xx_HAL_Driver\Src\stm32f4xx_hal_cortex.o
 .text.HAL_NVIC_GetPriority
                0x00000000       0x2c D:\IOT\rtthread-v4.0\rt-thread\bsp\stm32\libraries\STM32F4xx_HAL\STM32F4xx_HAL_Driver\Src\stm32f4xx_hal_cortex.o
 .text.HAL_NVIC_SetPendingIRQ
                0x00000000       0x1c D:\IOT\rtthread-v4.0\rt-thread\bsp\stm32\libraries\STM32F4xx_HAL\STM32F4xx_HAL_Driver\Src\stm32f4xx_hal_cortex.o
 .text.HAL_NVIC_GetPendingIRQ
                0x00000000       0x20 D:\IOT\rtthread-v4.0\rt-thread\bsp\stm32\libraries\STM32F4xx_HAL\STM32F4xx_HAL_Driver\Src\stm32f4xx_hal_cortex.o
 .text.HAL_NVIC_ClearPendingIRQ
                0x00000000       0x1c D:\IOT\rtthread-v4.0\rt-thread\bsp\stm32\libraries\STM32F4xx_HAL\STM32F4xx_HAL_Driver\Src\stm32f4xx_hal_cortex.o
 .text.HAL_NVIC_GetActive
                0x00000000       0x20 D:\IOT\rtthread-v4.0\rt-thread\bsp\stm32\libraries\STM32F4xx_HAL\STM32F4xx_HAL_Driver\Src\stm32f4xx_hal_cortex.o
 .text.HAL_SYSTICK_IRQHandler
                0x00000000        0xc D:\IOT\rtthread-v4.0\rt-thread\bsp\stm32\libraries\STM32F4xx_HAL\STM32F4xx_HAL_Driver\Src\stm32f4xx_hal_cortex.o
 .text.HAL_SYSTICK_Callback
                0x00000000       0x10 D:\IOT\rtthread-v4.0\rt-thread\bsp\stm32\libraries\STM32F4xx_HAL\STM32F4xx_HAL_Driver\Src\stm32f4xx_hal_cortex.o
 .text          0x00000000        0x0 D:\IOT\rtthread-v4.0\rt-thread\bsp\stm32\libraries\STM32F4xx_HAL\STM32F4xx_HAL_Driver\Src\stm32f4xx_hal_crc.o
 .data          0x00000000        0x0 D:\IOT\rtthread-v4.0\rt-thread\bsp\stm32\libraries\STM32F4xx_HAL\STM32F4xx_HAL_Driver\Src\stm32f4xx_hal_crc.o
 .bss           0x00000000        0x0 D:\IOT\rtthread-v4.0\rt-thread\bsp\stm32\libraries\STM32F4xx_HAL\STM32F4xx_HAL_Driver\Src\stm32f4xx_hal_crc.o
 .debug_info    0x00000000       0x90 D:\IOT\rtthread-v4.0\rt-thread\bsp\stm32\libraries\STM32F4xx_HAL\STM32F4xx_HAL_Driver\Src\stm32f4xx_hal_crc.o
 .debug_abbrev  0x00000000       0x4b D:\IOT\rtthread-v4.0\rt-thread\bsp\stm32\libraries\STM32F4xx_HAL\STM32F4xx_HAL_Driver\Src\stm32f4xx_hal_crc.o
 .debug_aranges
                0x00000000       0x18 D:\IOT\rtthread-v4.0\rt-thread\bsp\stm32\libraries\STM32F4xx_HAL\STM32F4xx_HAL_Driver\Src\stm32f4xx_hal_crc.o
 .debug_line    0x00000000       0xc8 D:\IOT\rtthread-v4.0\rt-thread\bsp\stm32\libraries\STM32F4xx_HAL\STM32F4xx_HAL_Driver\Src\stm32f4xx_hal_crc.o
 .debug_str     0x00000000      0x20e D:\IOT\rtthread-v4.0\rt-thread\bsp\stm32\libraries\STM32F4xx_HAL\STM32F4xx_HAL_Driver\Src\stm32f4xx_hal_crc.o
 .comment       0x00000000       0x6f D:\IOT\rtthread-v4.0\rt-thread\bsp\stm32\libraries\STM32F4xx_HAL\STM32F4xx_HAL_Driver\Src\stm32f4xx_hal_crc.o
 .ARM.attributes
                0x00000000       0x39 D:\IOT\rtthread-v4.0\rt-thread\bsp\stm32\libraries\STM32F4xx_HAL\STM32F4xx_HAL_Driver\Src\stm32f4xx_hal_crc.o
 .text          0x00000000        0x0 D:\IOT\rtthread-v4.0\rt-thread\bsp\stm32\libraries\STM32F4xx_HAL\STM32F4xx_HAL_Driver\Src\stm32f4xx_hal_cryp.o
 .data          0x00000000        0x0 D:\IOT\rtthread-v4.0\rt-thread\bsp\stm32\libraries\STM32F4xx_HAL\STM32F4xx_HAL_Driver\Src\stm32f4xx_hal_cryp.o
 .bss           0x00000000        0x0 D:\IOT\rtthread-v4.0\rt-thread\bsp\stm32\libraries\STM32F4xx_HAL\STM32F4xx_HAL_Driver\Src\stm32f4xx_hal_cryp.o
 .debug_info    0x00000000       0x90 D:\IOT\rtthread-v4.0\rt-thread\bsp\stm32\libraries\STM32F4xx_HAL\STM32F4xx_HAL_Driver\Src\stm32f4xx_hal_cryp.o
 .debug_abbrev  0x00000000       0x4b D:\IOT\rtthread-v4.0\rt-thread\bsp\stm32\libraries\STM32F4xx_HAL\STM32F4xx_HAL_Driver\Src\stm32f4xx_hal_cryp.o
 .debug_aranges
                0x00000000       0x18 D:\IOT\rtthread-v4.0\rt-thread\bsp\stm32\libraries\STM32F4xx_HAL\STM32F4xx_HAL_Driver\Src\stm32f4xx_hal_cryp.o
 .debug_line    0x00000000       0xc8 D:\IOT\rtthread-v4.0\rt-thread\bsp\stm32\libraries\STM32F4xx_HAL\STM32F4xx_HAL_Driver\Src\stm32f4xx_hal_cryp.o
 .debug_str     0x00000000      0x20f D:\IOT\rtthread-v4.0\rt-thread\bsp\stm32\libraries\STM32F4xx_HAL\STM32F4xx_HAL_Driver\Src\stm32f4xx_hal_cryp.o
 .comment       0x00000000       0x6f D:\IOT\rtthread-v4.0\rt-thread\bsp\stm32\libraries\STM32F4xx_HAL\STM32F4xx_HAL_Driver\Src\stm32f4xx_hal_cryp.o
 .ARM.attributes
                0x00000000       0x39 D:\IOT\rtthread-v4.0\rt-thread\bsp\stm32\libraries\STM32F4xx_HAL\STM32F4xx_HAL_Driver\Src\stm32f4xx_hal_cryp.o
 .text          0x00000000        0x0 D:\IOT\rtthread-v4.0\rt-thread\bsp\stm32\libraries\STM32F4xx_HAL\STM32F4xx_HAL_Driver\Src\stm32f4xx_hal_cryp_ex.o
 .data          0x00000000        0x0 D:\IOT\rtthread-v4.0\rt-thread\bsp\stm32\libraries\STM32F4xx_HAL\STM32F4xx_HAL_Driver\Src\stm32f4xx_hal_cryp_ex.o
 .bss           0x00000000        0x0 D:\IOT\rtthread-v4.0\rt-thread\bsp\stm32\libraries\STM32F4xx_HAL\STM32F4xx_HAL_Driver\Src\stm32f4xx_hal_cryp_ex.o
 .debug_info    0x00000000       0x90 D:\IOT\rtthread-v4.0\rt-thread\bsp\stm32\libraries\STM32F4xx_HAL\STM32F4xx_HAL_Driver\Src\stm32f4xx_hal_cryp_ex.o
 .debug_abbrev  0x00000000       0x4b D:\IOT\rtthread-v4.0\rt-thread\bsp\stm32\libraries\STM32F4xx_HAL\STM32F4xx_HAL_Driver\Src\stm32f4xx_hal_cryp_ex.o
 .debug_aranges
                0x00000000       0x18 D:\IOT\rtthread-v4.0\rt-thread\bsp\stm32\libraries\STM32F4xx_HAL\STM32F4xx_HAL_Driver\Src\stm32f4xx_hal_cryp_ex.o
 .debug_line    0x00000000       0xc8 D:\IOT\rtthread-v4.0\rt-thread\bsp\stm32\libraries\STM32F4xx_HAL\STM32F4xx_HAL_Driver\Src\stm32f4xx_hal_cryp_ex.o
 .debug_str     0x00000000      0x212 D:\IOT\rtthread-v4.0\rt-thread\bsp\stm32\libraries\STM32F4xx_HAL\STM32F4xx_HAL_Driver\Src\stm32f4xx_hal_cryp_ex.o
 .comment       0x00000000       0x6f D:\IOT\rtthread-v4.0\rt-thread\bsp\stm32\libraries\STM32F4xx_HAL\STM32F4xx_HAL_Driver\Src\stm32f4xx_hal_cryp_ex.o
 .ARM.attributes
                0x00000000       0x39 D:\IOT\rtthread-v4.0\rt-thread\bsp\stm32\libraries\STM32F4xx_HAL\STM32F4xx_HAL_Driver\Src\stm32f4xx_hal_cryp_ex.o
 .text          0x00000000        0x0 D:\IOT\rtthread-v4.0\rt-thread\bsp\stm32\libraries\STM32F4xx_HAL\STM32F4xx_HAL_Driver\Src\stm32f4xx_hal_dma.o
 .data          0x00000000        0x0 D:\IOT\rtthread-v4.0\rt-thread\bsp\stm32\libraries\STM32F4xx_HAL\STM32F4xx_HAL_Driver\Src\stm32f4xx_hal_dma.o
 .bss           0x00000000        0x0 D:\IOT\rtthread-v4.0\rt-thread\bsp\stm32\libraries\STM32F4xx_HAL\STM32F4xx_HAL_Driver\Src\stm32f4xx_hal_dma.o
 .text.HAL_DMA_Start
                0x00000000       0x78 D:\IOT\rtthread-v4.0\rt-thread\bsp\stm32\libraries\STM32F4xx_HAL\STM32F4xx_HAL_Driver\Src\stm32f4xx_hal_dma.o
 .text.HAL_DMA_Abort
                0x00000000       0xe0 D:\IOT\rtthread-v4.0\rt-thread\bsp\stm32\libraries\STM32F4xx_HAL\STM32F4xx_HAL_Driver\Src\stm32f4xx_hal_dma.o
 .text.HAL_DMA_PollForTransfer
                0x00000000      0x1c0 D:\IOT\rtthread-v4.0\rt-thread\bsp\stm32\libraries\STM32F4xx_HAL\STM32F4xx_HAL_Driver\Src\stm32f4xx_hal_dma.o
 .text.HAL_DMA_IRQHandler
                0x00000000      0x314 D:\IOT\rtthread-v4.0\rt-thread\bsp\stm32\libraries\STM32F4xx_HAL\STM32F4xx_HAL_Driver\Src\stm32f4xx_hal_dma.o
 .text.HAL_DMA_RegisterCallback
                0x00000000       0xa8 D:\IOT\rtthread-v4.0\rt-thread\bsp\stm32\libraries\STM32F4xx_HAL\STM32F4xx_HAL_Driver\Src\stm32f4xx_hal_dma.o
 .text.HAL_DMA_UnRegisterCallback
                0x00000000       0xd4 D:\IOT\rtthread-v4.0\rt-thread\bsp\stm32\libraries\STM32F4xx_HAL\STM32F4xx_HAL_Driver\Src\stm32f4xx_hal_dma.o
 .text.HAL_DMA_GetState
                0x00000000       0x1c D:\IOT\rtthread-v4.0\rt-thread\bsp\stm32\libraries\STM32F4xx_HAL\STM32F4xx_HAL_Driver\Src\stm32f4xx_hal_dma.o
 .text.HAL_DMA_GetError
                0x00000000       0x18 D:\IOT\rtthread-v4.0\rt-thread\bsp\stm32\libraries\STM32F4xx_HAL\STM32F4xx_HAL_Driver\Src\stm32f4xx_hal_dma.o
 .text          0x00000000        0x0 D:\IOT\rtthread-v4.0\rt-thread\bsp\stm32\libraries\STM32F4xx_HAL\STM32F4xx_HAL_Driver\Src\stm32f4xx_hal_dma_ex.o
 .data          0x00000000        0x0 D:\IOT\rtthread-v4.0\rt-thread\bsp\stm32\libraries\STM32F4xx_HAL\STM32F4xx_HAL_Driver\Src\stm32f4xx_hal_dma_ex.o
 .bss           0x00000000        0x0 D:\IOT\rtthread-v4.0\rt-thread\bsp\stm32\libraries\STM32F4xx_HAL\STM32F4xx_HAL_Driver\Src\stm32f4xx_hal_dma_ex.o
 .text.HAL_DMAEx_MultiBufferStart
                0x00000000       0x98 D:\IOT\rtthread-v4.0\rt-thread\bsp\stm32\libraries\STM32F4xx_HAL\STM32F4xx_HAL_Driver\Src\stm32f4xx_hal_dma_ex.o
 .text.HAL_DMAEx_MultiBufferStart_IT
                0x00000000     0x1478 D:\IOT\rtthread-v4.0\rt-thread\bsp\stm32\libraries\STM32F4xx_HAL\STM32F4xx_HAL_Driver\Src\stm32f4xx_hal_dma_ex.o
 .text.HAL_DMAEx_ChangeMemory
                0x00000000       0x34 D:\IOT\rtthread-v4.0\rt-thread\bsp\stm32\libraries\STM32F4xx_HAL\STM32F4xx_HAL_Driver\Src\stm32f4xx_hal_dma_ex.o
 .text.DMA_MultiBufferSetConfig
                0x00000000       0x4c D:\IOT\rtthread-v4.0\rt-thread\bsp\stm32\libraries\STM32F4xx_HAL\STM32F4xx_HAL_Driver\Src\stm32f4xx_hal_dma_ex.o
 .debug_info    0x00000000      0x56a D:\IOT\rtthread-v4.0\rt-thread\bsp\stm32\libraries\STM32F4xx_HAL\STM32F4xx_HAL_Driver\Src\stm32f4xx_hal_dma_ex.o
 .debug_abbrev  0x00000000      0x169 D:\IOT\rtthread-v4.0\rt-thread\bsp\stm32\libraries\STM32F4xx_HAL\STM32F4xx_HAL_Driver\Src\stm32f4xx_hal_dma_ex.o
 .debug_loc     0x00000000      0x158 D:\IOT\rtthread-v4.0\rt-thread\bsp\stm32\libraries\STM32F4xx_HAL\STM32F4xx_HAL_Driver\Src\stm32f4xx_hal_dma_ex.o
 .debug_aranges
                0x00000000       0x38 D:\IOT\rtthread-v4.0\rt-thread\bsp\stm32\libraries\STM32F4xx_HAL\STM32F4xx_HAL_Driver\Src\stm32f4xx_hal_dma_ex.o
 .debug_ranges  0x00000000       0x28 D:\IOT\rtthread-v4.0\rt-thread\bsp\stm32\libraries\STM32F4xx_HAL\STM32F4xx_HAL_Driver\Src\stm32f4xx_hal_dma_ex.o
 .debug_line    0x00000000      0xdf0 D:\IOT\rtthread-v4.0\rt-thread\bsp\stm32\libraries\STM32F4xx_HAL\STM32F4xx_HAL_Driver\Src\stm32f4xx_hal_dma_ex.o
 .debug_str     0x00000000      0x59c D:\IOT\rtthread-v4.0\rt-thread\bsp\stm32\libraries\STM32F4xx_HAL\STM32F4xx_HAL_Driver\Src\stm32f4xx_hal_dma_ex.o
 .comment       0x00000000       0x6f D:\IOT\rtthread-v4.0\rt-thread\bsp\stm32\libraries\STM32F4xx_HAL\STM32F4xx_HAL_Driver\Src\stm32f4xx_hal_dma_ex.o
 .debug_frame   0x00000000       0xac D:\IOT\rtthread-v4.0\rt-thread\bsp\stm32\libraries\STM32F4xx_HAL\STM32F4xx_HAL_Driver\Src\stm32f4xx_hal_dma_ex.o
 .ARM.attributes
                0x00000000       0x39 D:\IOT\rtthread-v4.0\rt-thread\bsp\stm32\libraries\STM32F4xx_HAL\STM32F4xx_HAL_Driver\Src\stm32f4xx_hal_dma_ex.o
 .text          0x00000000        0x0 D:\IOT\rtthread-v4.0\rt-thread\bsp\stm32\libraries\STM32F4xx_HAL\STM32F4xx_HAL_Driver\Src\stm32f4xx_hal_pwr.o
 .data          0x00000000        0x0 D:\IOT\rtthread-v4.0\rt-thread\bsp\stm32\libraries\STM32F4xx_HAL\STM32F4xx_HAL_Driver\Src\stm32f4xx_hal_pwr.o
 .bss           0x00000000        0x0 D:\IOT\rtthread-v4.0\rt-thread\bsp\stm32\libraries\STM32F4xx_HAL\STM32F4xx_HAL_Driver\Src\stm32f4xx_hal_pwr.o
 .text.HAL_PWR_DeInit
                0x00000000       0x2c D:\IOT\rtthread-v4.0\rt-thread\bsp\stm32\libraries\STM32F4xx_HAL\STM32F4xx_HAL_Driver\Src\stm32f4xx_hal_pwr.o
 .text.HAL_PWR_EnableBkUpAccess
                0x00000000       0x18 D:\IOT\rtthread-v4.0\rt-thread\bsp\stm32\libraries\STM32F4xx_HAL\STM32F4xx_HAL_Driver\Src\stm32f4xx_hal_pwr.o
 .text.HAL_PWR_DisableBkUpAccess
                0x00000000       0x18 D:\IOT\rtthread-v4.0\rt-thread\bsp\stm32\libraries\STM32F4xx_HAL\STM32F4xx_HAL_Driver\Src\stm32f4xx_hal_pwr.o
 .text.HAL_PWR_ConfigPVD
                0x00000000       0xc0 D:\IOT\rtthread-v4.0\rt-thread\bsp\stm32\libraries\STM32F4xx_HAL\STM32F4xx_HAL_Driver\Src\stm32f4xx_hal_pwr.o
 .text.HAL_PWR_EnablePVD
                0x00000000       0x18 D:\IOT\rtthread-v4.0\rt-thread\bsp\stm32\libraries\STM32F4xx_HAL\STM32F4xx_HAL_Driver\Src\stm32f4xx_hal_pwr.o
 .text.HAL_PWR_DisablePVD
                0x00000000       0x18 D:\IOT\rtthread-v4.0\rt-thread\bsp\stm32\libraries\STM32F4xx_HAL\STM32F4xx_HAL_Driver\Src\stm32f4xx_hal_pwr.o
 .text.HAL_PWR_EnableWakeUpPin
                0x00000000       0x24 D:\IOT\rtthread-v4.0\rt-thread\bsp\stm32\libraries\STM32F4xx_HAL\STM32F4xx_HAL_Driver\Src\stm32f4xx_hal_pwr.o
 .text.HAL_PWR_DisableWakeUpPin
                0x00000000       0x28 D:\IOT\rtthread-v4.0\rt-thread\bsp\stm32\libraries\STM32F4xx_HAL\STM32F4xx_HAL_Driver\Src\stm32f4xx_hal_pwr.o
 .text.HAL_PWR_EnterSLEEPMode
                0x00000000       0x38 D:\IOT\rtthread-v4.0\rt-thread\bsp\stm32\libraries\STM32F4xx_HAL\STM32F4xx_HAL_Driver\Src\stm32f4xx_hal_pwr.o
 .text.HAL_PWR_EnterSTOPMode
                0x00000000       0x58 D:\IOT\rtthread-v4.0\rt-thread\bsp\stm32\libraries\STM32F4xx_HAL\STM32F4xx_HAL_Driver\Src\stm32f4xx_hal_pwr.o
 .text.HAL_PWR_EnterSTANDBYMode
                0x00000000       0x30 D:\IOT\rtthread-v4.0\rt-thread\bsp\stm32\libraries\STM32F4xx_HAL\STM32F4xx_HAL_Driver\Src\stm32f4xx_hal_pwr.o
 .text.HAL_PWR_PVD_IRQHandler
                0x00000000       0x24 D:\IOT\rtthread-v4.0\rt-thread\bsp\stm32\libraries\STM32F4xx_HAL\STM32F4xx_HAL_Driver\Src\stm32f4xx_hal_pwr.o
 .text.HAL_PWR_PVDCallback
                0x00000000       0x10 D:\IOT\rtthread-v4.0\rt-thread\bsp\stm32\libraries\STM32F4xx_HAL\STM32F4xx_HAL_Driver\Src\stm32f4xx_hal_pwr.o
 .text.HAL_PWR_EnableSleepOnExit
                0x00000000       0x20 D:\IOT\rtthread-v4.0\rt-thread\bsp\stm32\libraries\STM32F4xx_HAL\STM32F4xx_HAL_Driver\Src\stm32f4xx_hal_pwr.o
 .text.HAL_PWR_DisableSleepOnExit
                0x00000000       0x20 D:\IOT\rtthread-v4.0\rt-thread\bsp\stm32\libraries\STM32F4xx_HAL\STM32F4xx_HAL_Driver\Src\stm32f4xx_hal_pwr.o
 .text.HAL_PWR_EnableSEVOnPend
                0x00000000       0x20 D:\IOT\rtthread-v4.0\rt-thread\bsp\stm32\libraries\STM32F4xx_HAL\STM32F4xx_HAL_Driver\Src\stm32f4xx_hal_pwr.o
 .text.HAL_PWR_DisableSEVOnPend
                0x00000000       0x20 D:\IOT\rtthread-v4.0\rt-thread\bsp\stm32\libraries\STM32F4xx_HAL\STM32F4xx_HAL_Driver\Src\stm32f4xx_hal_pwr.o
 .debug_info    0x00000000      0x77d D:\IOT\rtthread-v4.0\rt-thread\bsp\stm32\libraries\STM32F4xx_HAL\STM32F4xx_HAL_Driver\Src\stm32f4xx_hal_pwr.o
 .debug_abbrev  0x00000000      0x182 D:\IOT\rtthread-v4.0\rt-thread\bsp\stm32\libraries\STM32F4xx_HAL\STM32F4xx_HAL_Driver\Src\stm32f4xx_hal_pwr.o
 .debug_loc     0x00000000      0x4e4 D:\IOT\rtthread-v4.0\rt-thread\bsp\stm32\libraries\STM32F4xx_HAL\STM32F4xx_HAL_Driver\Src\stm32f4xx_hal_pwr.o
 .debug_aranges
                0x00000000       0xa0 D:\IOT\rtthread-v4.0\rt-thread\bsp\stm32\libraries\STM32F4xx_HAL\STM32F4xx_HAL_Driver\Src\stm32f4xx_hal_pwr.o
 .debug_ranges  0x00000000       0x90 D:\IOT\rtthread-v4.0\rt-thread\bsp\stm32\libraries\STM32F4xx_HAL\STM32F4xx_HAL_Driver\Src\stm32f4xx_hal_pwr.o
 .debug_line    0x00000000      0x37e D:\IOT\rtthread-v4.0\rt-thread\bsp\stm32\libraries\STM32F4xx_HAL\STM32F4xx_HAL_Driver\Src\stm32f4xx_hal_pwr.o
 .debug_str     0x00000000      0x580 D:\IOT\rtthread-v4.0\rt-thread\bsp\stm32\libraries\STM32F4xx_HAL\STM32F4xx_HAL_Driver\Src\stm32f4xx_hal_pwr.o
 .comment       0x00000000       0x6f D:\IOT\rtthread-v4.0\rt-thread\bsp\stm32\libraries\STM32F4xx_HAL\STM32F4xx_HAL_Driver\Src\stm32f4xx_hal_pwr.o
 .debug_frame   0x00000000      0x254 D:\IOT\rtthread-v4.0\rt-thread\bsp\stm32\libraries\STM32F4xx_HAL\STM32F4xx_HAL_Driver\Src\stm32f4xx_hal_pwr.o
 .ARM.attributes
                0x00000000       0x39 D:\IOT\rtthread-v4.0\rt-thread\bsp\stm32\libraries\STM32F4xx_HAL\STM32F4xx_HAL_Driver\Src\stm32f4xx_hal_pwr.o
 .text          0x00000000        0x0 D:\IOT\rtthread-v4.0\rt-thread\bsp\stm32\libraries\STM32F4xx_HAL\STM32F4xx_HAL_Driver\Src\stm32f4xx_hal_pwr_ex.o
 .data          0x00000000        0x0 D:\IOT\rtthread-v4.0\rt-thread\bsp\stm32\libraries\STM32F4xx_HAL\STM32F4xx_HAL_Driver\Src\stm32f4xx_hal_pwr_ex.o
 .bss           0x00000000        0x0 D:\IOT\rtthread-v4.0\rt-thread\bsp\stm32\libraries\STM32F4xx_HAL\STM32F4xx_HAL_Driver\Src\stm32f4xx_hal_pwr_ex.o
 .text.HAL_PWREx_EnableBkUpReg
                0x00000000       0x4c D:\IOT\rtthread-v4.0\rt-thread\bsp\stm32\libraries\STM32F4xx_HAL\STM32F4xx_HAL_Driver\Src\stm32f4xx_hal_pwr_ex.o
 .text.HAL_PWREx_DisableBkUpReg
                0x00000000       0x4c D:\IOT\rtthread-v4.0\rt-thread\bsp\stm32\libraries\STM32F4xx_HAL\STM32F4xx_HAL_Driver\Src\stm32f4xx_hal_pwr_ex.o
 .text.HAL_PWREx_EnableFlashPowerDown
                0x00000000       0x18 D:\IOT\rtthread-v4.0\rt-thread\bsp\stm32\libraries\STM32F4xx_HAL\STM32F4xx_HAL_Driver\Src\stm32f4xx_hal_pwr_ex.o
 .text.HAL_PWREx_DisableFlashPowerDown
                0x00000000       0x18 D:\IOT\rtthread-v4.0\rt-thread\bsp\stm32\libraries\STM32F4xx_HAL\STM32F4xx_HAL_Driver\Src\stm32f4xx_hal_pwr_ex.o
 .text.HAL_PWREx_GetVoltageRange
                0x00000000       0x1c D:\IOT\rtthread-v4.0\rt-thread\bsp\stm32\libraries\STM32F4xx_HAL\STM32F4xx_HAL_Driver\Src\stm32f4xx_hal_pwr_ex.o
 .text.HAL_PWREx_ControlVoltageScaling
                0x00000000       0x84 D:\IOT\rtthread-v4.0\rt-thread\bsp\stm32\libraries\STM32F4xx_HAL\STM32F4xx_HAL_Driver\Src\stm32f4xx_hal_pwr_ex.o
 .debug_info    0x00000000      0x439 D:\IOT\rtthread-v4.0\rt-thread\bsp\stm32\libraries\STM32F4xx_HAL\STM32F4xx_HAL_Driver\Src\stm32f4xx_hal_pwr_ex.o
 .debug_abbrev  0x00000000      0x13c D:\IOT\rtthread-v4.0\rt-thread\bsp\stm32\libraries\STM32F4xx_HAL\STM32F4xx_HAL_Driver\Src\stm32f4xx_hal_pwr_ex.o
 .debug_loc     0x00000000      0x1bc D:\IOT\rtthread-v4.0\rt-thread\bsp\stm32\libraries\STM32F4xx_HAL\STM32F4xx_HAL_Driver\Src\stm32f4xx_hal_pwr_ex.o
 .debug_aranges
                0x00000000       0x48 D:\IOT\rtthread-v4.0\rt-thread\bsp\stm32\libraries\STM32F4xx_HAL\STM32F4xx_HAL_Driver\Src\stm32f4xx_hal_pwr_ex.o
 .debug_ranges  0x00000000       0x38 D:\IOT\rtthread-v4.0\rt-thread\bsp\stm32\libraries\STM32F4xx_HAL\STM32F4xx_HAL_Driver\Src\stm32f4xx_hal_pwr_ex.o
 .debug_line    0x00000000      0x2b2 D:\IOT\rtthread-v4.0\rt-thread\bsp\stm32\libraries\STM32F4xx_HAL\STM32F4xx_HAL_Driver\Src\stm32f4xx_hal_pwr_ex.o
 .debug_str     0x00000000      0x439 D:\IOT\rtthread-v4.0\rt-thread\bsp\stm32\libraries\STM32F4xx_HAL\STM32F4xx_HAL_Driver\Src\stm32f4xx_hal_pwr_ex.o
 .comment       0x00000000       0x6f D:\IOT\rtthread-v4.0\rt-thread\bsp\stm32\libraries\STM32F4xx_HAL\STM32F4xx_HAL_Driver\Src\stm32f4xx_hal_pwr_ex.o
 .debug_frame   0x00000000       0xdc D:\IOT\rtthread-v4.0\rt-thread\bsp\stm32\libraries\STM32F4xx_HAL\STM32F4xx_HAL_Driver\Src\stm32f4xx_hal_pwr_ex.o
 .ARM.attributes
                0x00000000       0x39 D:\IOT\rtthread-v4.0\rt-thread\bsp\stm32\libraries\STM32F4xx_HAL\STM32F4xx_HAL_Driver\Src\stm32f4xx_hal_pwr_ex.o
 .text          0x00000000        0x0 D:\IOT\rtthread-v4.0\rt-thread\bsp\stm32\libraries\STM32F4xx_HAL\STM32F4xx_HAL_Driver\Src\stm32f4xx_hal_rcc.o
 .data          0x00000000        0x0 D:\IOT\rtthread-v4.0\rt-thread\bsp\stm32\libraries\STM32F4xx_HAL\STM32F4xx_HAL_Driver\Src\stm32f4xx_hal_rcc.o
 .bss           0x00000000        0x0 D:\IOT\rtthread-v4.0\rt-thread\bsp\stm32\libraries\STM32F4xx_HAL\STM32F4xx_HAL_Driver\Src\stm32f4xx_hal_rcc.o
 .text.HAL_RCC_DeInit
                0x00000000       0x10 D:\IOT\rtthread-v4.0\rt-thread\bsp\stm32\libraries\STM32F4xx_HAL\STM32F4xx_HAL_Driver\Src\stm32f4xx_hal_rcc.o
 .text.HAL_RCC_MCOConfig
                0x00000000       0xd0 D:\IOT\rtthread-v4.0\rt-thread\bsp\stm32\libraries\STM32F4xx_HAL\STM32F4xx_HAL_Driver\Src\stm32f4xx_hal_rcc.o
 .text.HAL_RCC_EnableCSS
                0x00000000       0x18 D:\IOT\rtthread-v4.0\rt-thread\bsp\stm32\libraries\STM32F4xx_HAL\STM32F4xx_HAL_Driver\Src\stm32f4xx_hal_rcc.o
 .text.HAL_RCC_DisableCSS
                0x00000000       0x18 D:\IOT\rtthread-v4.0\rt-thread\bsp\stm32\libraries\STM32F4xx_HAL\STM32F4xx_HAL_Driver\Src\stm32f4xx_hal_rcc.o
 .text.HAL_RCC_GetOscConfig
                0x00000000      0x124 D:\IOT\rtthread-v4.0\rt-thread\bsp\stm32\libraries\STM32F4xx_HAL\STM32F4xx_HAL_Driver\Src\stm32f4xx_hal_rcc.o
 .text.HAL_RCC_GetClockConfig
                0x00000000       0x64 D:\IOT\rtthread-v4.0\rt-thread\bsp\stm32\libraries\STM32F4xx_HAL\STM32F4xx_HAL_Driver\Src\stm32f4xx_hal_rcc.o
 .text.HAL_RCC_NMI_IRQHandler
                0x00000000       0x28 D:\IOT\rtthread-v4.0\rt-thread\bsp\stm32\libraries\STM32F4xx_HAL\STM32F4xx_HAL_Driver\Src\stm32f4xx_hal_rcc.o
 .text.HAL_RCC_CSSCallback
                0x00000000       0x10 D:\IOT\rtthread-v4.0\rt-thread\bsp\stm32\libraries\STM32F4xx_HAL\STM32F4xx_HAL_Driver\Src\stm32f4xx_hal_rcc.o
 .text          0x00000000        0x0 D:\IOT\rtthread-v4.0\rt-thread\bsp\stm32\libraries\STM32F4xx_HAL\STM32F4xx_HAL_Driver\Src\stm32f4xx_hal_rcc_ex.o
 .data          0x00000000        0x0 D:\IOT\rtthread-v4.0\rt-thread\bsp\stm32\libraries\STM32F4xx_HAL\STM32F4xx_HAL_Driver\Src\stm32f4xx_hal_rcc_ex.o
 .bss           0x00000000        0x0 D:\IOT\rtthread-v4.0\rt-thread\bsp\stm32\libraries\STM32F4xx_HAL\STM32F4xx_HAL_Driver\Src\stm32f4xx_hal_rcc_ex.o
 .text.HAL_RCCEx_PeriphCLKConfig
                0x00000000      0x1c4 D:\IOT\rtthread-v4.0\rt-thread\bsp\stm32\libraries\STM32F4xx_HAL\STM32F4xx_HAL_Driver\Src\stm32f4xx_hal_rcc_ex.o
 .text.HAL_RCCEx_GetPeriphCLKConfig
                0x00000000       0x5c D:\IOT\rtthread-v4.0\rt-thread\bsp\stm32\libraries\STM32F4xx_HAL\STM32F4xx_HAL_Driver\Src\stm32f4xx_hal_rcc_ex.o
 .text.HAL_RCCEx_GetPeriphCLKFreq
                0x00000000       0xc0 D:\IOT\rtthread-v4.0\rt-thread\bsp\stm32\libraries\STM32F4xx_HAL\STM32F4xx_HAL_Driver\Src\stm32f4xx_hal_rcc_ex.o
 .text.HAL_RCCEx_EnablePLLI2S
                0x00000000       0x88 D:\IOT\rtthread-v4.0\rt-thread\bsp\stm32\libraries\STM32F4xx_HAL\STM32F4xx_HAL_Driver\Src\stm32f4xx_hal_rcc_ex.o
 .text.HAL_RCCEx_DisablePLLI2S
                0x00000000       0x44 D:\IOT\rtthread-v4.0\rt-thread\bsp\stm32\libraries\STM32F4xx_HAL\STM32F4xx_HAL_Driver\Src\stm32f4xx_hal_rcc_ex.o
 .text.HAL_RCC_DeInit
                0x00000000      0x194 D:\IOT\rtthread-v4.0\rt-thread\bsp\stm32\libraries\STM32F4xx_HAL\STM32F4xx_HAL_Driver\Src\stm32f4xx_hal_rcc_ex.o
 .debug_info    0x00000000      0x56c D:\IOT\rtthread-v4.0\rt-thread\bsp\stm32\libraries\STM32F4xx_HAL\STM32F4xx_HAL_Driver\Src\stm32f4xx_hal_rcc_ex.o
 .debug_abbrev  0x00000000      0x14f D:\IOT\rtthread-v4.0\rt-thread\bsp\stm32\libraries\STM32F4xx_HAL\STM32F4xx_HAL_Driver\Src\stm32f4xx_hal_rcc_ex.o
 .debug_loc     0x00000000      0x1f8 D:\IOT\rtthread-v4.0\rt-thread\bsp\stm32\libraries\STM32F4xx_HAL\STM32F4xx_HAL_Driver\Src\stm32f4xx_hal_rcc_ex.o
 .debug_aranges
                0x00000000       0x48 D:\IOT\rtthread-v4.0\rt-thread\bsp\stm32\libraries\STM32F4xx_HAL\STM32F4xx_HAL_Driver\Src\stm32f4xx_hal_rcc_ex.o
 .debug_ranges  0x00000000       0x38 D:\IOT\rtthread-v4.0\rt-thread\bsp\stm32\libraries\STM32F4xx_HAL\STM32F4xx_HAL_Driver\Src\stm32f4xx_hal_rcc_ex.o
 .debug_line    0x00000000      0x388 D:\IOT\rtthread-v4.0\rt-thread\bsp\stm32\libraries\STM32F4xx_HAL\STM32F4xx_HAL_Driver\Src\stm32f4xx_hal_rcc_ex.o
 .debug_str     0x00000000      0x4ec D:\IOT\rtthread-v4.0\rt-thread\bsp\stm32\libraries\STM32F4xx_HAL\STM32F4xx_HAL_Driver\Src\stm32f4xx_hal_rcc_ex.o
 .comment       0x00000000       0x6f D:\IOT\rtthread-v4.0\rt-thread\bsp\stm32\libraries\STM32F4xx_HAL\STM32F4xx_HAL_Driver\Src\stm32f4xx_hal_rcc_ex.o
 .debug_frame   0x00000000       0xf0 D:\IOT\rtthread-v4.0\rt-thread\bsp\stm32\libraries\STM32F4xx_HAL\STM32F4xx_HAL_Driver\Src\stm32f4xx_hal_rcc_ex.o
 .ARM.attributes
                0x00000000       0x39 D:\IOT\rtthread-v4.0\rt-thread\bsp\stm32\libraries\STM32F4xx_HAL\STM32F4xx_HAL_Driver\Src\stm32f4xx_hal_rcc_ex.o
 .text          0x00000000        0x0 D:\IOT\rtthread-v4.0\rt-thread\bsp\stm32\libraries\STM32F4xx_HAL\STM32F4xx_HAL_Driver\Src\stm32f4xx_hal_rng.o
 .data          0x00000000        0x0 D:\IOT\rtthread-v4.0\rt-thread\bsp\stm32\libraries\STM32F4xx_HAL\STM32F4xx_HAL_Driver\Src\stm32f4xx_hal_rng.o
 .bss           0x00000000        0x0 D:\IOT\rtthread-v4.0\rt-thread\bsp\stm32\libraries\STM32F4xx_HAL\STM32F4xx_HAL_Driver\Src\stm32f4xx_hal_rng.o
 .debug_info    0x00000000       0x90 D:\IOT\rtthread-v4.0\rt-thread\bsp\stm32\libraries\STM32F4xx_HAL\STM32F4xx_HAL_Driver\Src\stm32f4xx_hal_rng.o
 .debug_abbrev  0x00000000       0x4b D:\IOT\rtthread-v4.0\rt-thread\bsp\stm32\libraries\STM32F4xx_HAL\STM32F4xx_HAL_Driver\Src\stm32f4xx_hal_rng.o
 .debug_aranges
                0x00000000       0x18 D:\IOT\rtthread-v4.0\rt-thread\bsp\stm32\libraries\STM32F4xx_HAL\STM32F4xx_HAL_Driver\Src\stm32f4xx_hal_rng.o
 .debug_line    0x00000000       0xc8 D:\IOT\rtthread-v4.0\rt-thread\bsp\stm32\libraries\STM32F4xx_HAL\STM32F4xx_HAL_Driver\Src\stm32f4xx_hal_rng.o
 .debug_str     0x00000000      0x20e D:\IOT\rtthread-v4.0\rt-thread\bsp\stm32\libraries\STM32F4xx_HAL\STM32F4xx_HAL_Driver\Src\stm32f4xx_hal_rng.o
 .comment       0x00000000       0x6f D:\IOT\rtthread-v4.0\rt-thread\bsp\stm32\libraries\STM32F4xx_HAL\STM32F4xx_HAL_Driver\Src\stm32f4xx_hal_rng.o
 .ARM.attributes
                0x00000000       0x39 D:\IOT\rtthread-v4.0\rt-thread\bsp\stm32\libraries\STM32F4xx_HAL\STM32F4xx_HAL_Driver\Src\stm32f4xx_hal_rng.o
 .text          0x00000000        0x0 D:\IOT\rtthread-v4.0\rt-thread\bsp\stm32\libraries\STM32F4xx_HAL\STM32F4xx_HAL_Driver\Src\stm32f4xx_hal_gpio.o
 .data          0x00000000        0x0 D:\IOT\rtthread-v4.0\rt-thread\bsp\stm32\libraries\STM32F4xx_HAL\STM32F4xx_HAL_Driver\Src\stm32f4xx_hal_gpio.o
 .bss           0x00000000        0x0 D:\IOT\rtthread-v4.0\rt-thread\bsp\stm32\libraries\STM32F4xx_HAL\STM32F4xx_HAL_Driver\Src\stm32f4xx_hal_gpio.o
 .text.HAL_GPIO_TogglePin
                0x00000000       0x38 D:\IOT\rtthread-v4.0\rt-thread\bsp\stm32\libraries\STM32F4xx_HAL\STM32F4xx_HAL_Driver\Src\stm32f4xx_hal_gpio.o
 .text.HAL_GPIO_LockPin
                0x00000000       0x50 D:\IOT\rtthread-v4.0\rt-thread\bsp\stm32\libraries\STM32F4xx_HAL\STM32F4xx_HAL_Driver\Src\stm32f4xx_hal_gpio.o
 .text.HAL_GPIO_EXTI_Callback
                0x00000000       0x18 D:\IOT\rtthread-v4.0\rt-thread\bsp\stm32\libraries\STM32F4xx_HAL\STM32F4xx_HAL_Driver\Src\stm32f4xx_hal_gpio.o
 .text          0x00000000        0x0 D:\IOT\rtthread-v4.0\rt-thread\bsp\stm32\libraries\STM32F4xx_HAL\STM32F4xx_HAL_Driver\Src\stm32f4xx_hal_uart.o
 .data          0x00000000        0x0 D:\IOT\rtthread-v4.0\rt-thread\bsp\stm32\libraries\STM32F4xx_HAL\STM32F4xx_HAL_Driver\Src\stm32f4xx_hal_uart.o
 .bss           0x00000000        0x0 D:\IOT\rtthread-v4.0\rt-thread\bsp\stm32\libraries\STM32F4xx_HAL\STM32F4xx_HAL_Driver\Src\stm32f4xx_hal_uart.o
 .text.HAL_HalfDuplex_Init
                0x00000000       0xac D:\IOT\rtthread-v4.0\rt-thread\bsp\stm32\libraries\STM32F4xx_HAL\STM32F4xx_HAL_Driver\Src\stm32f4xx_hal_uart.o
 .text.HAL_LIN_Init
                0x00000000       0xcc D:\IOT\rtthread-v4.0\rt-thread\bsp\stm32\libraries\STM32F4xx_HAL\STM32F4xx_HAL_Driver\Src\stm32f4xx_hal_uart.o
 .text.HAL_MultiProcessor_Init
                0x00000000       0xe0 D:\IOT\rtthread-v4.0\rt-thread\bsp\stm32\libraries\STM32F4xx_HAL\STM32F4xx_HAL_Driver\Src\stm32f4xx_hal_uart.o
 .text.HAL_UART_DeInit
                0x00000000       0x58 D:\IOT\rtthread-v4.0\rt-thread\bsp\stm32\libraries\STM32F4xx_HAL\STM32F4xx_HAL_Driver\Src\stm32f4xx_hal_uart.o
 .text.HAL_UART_MspInit
                0x00000000       0x14 D:\IOT\rtthread-v4.0\rt-thread\bsp\stm32\libraries\STM32F4xx_HAL\STM32F4xx_HAL_Driver\Src\stm32f4xx_hal_uart.o
 .text.HAL_UART_MspDeInit
                0x00000000       0x14 D:\IOT\rtthread-v4.0\rt-thread\bsp\stm32\libraries\STM32F4xx_HAL\STM32F4xx_HAL_Driver\Src\stm32f4xx_hal_uart.o
 .text.HAL_UART_Transmit
                0x00000000      0x130 D:\IOT\rtthread-v4.0\rt-thread\bsp\stm32\libraries\STM32F4xx_HAL\STM32F4xx_HAL_Driver\Src\stm32f4xx_hal_uart.o
 .text.HAL_UART_Receive
                0x00000000      0x14c D:\IOT\rtthread-v4.0\rt-thread\bsp\stm32\libraries\STM32F4xx_HAL\STM32F4xx_HAL_Driver\Src\stm32f4xx_hal_uart.o
 .text.HAL_UART_Transmit_IT
                0x00000000       0x8c D:\IOT\rtthread-v4.0\rt-thread\bsp\stm32\libraries\STM32F4xx_HAL\STM32F4xx_HAL_Driver\Src\stm32f4xx_hal_uart.o
 .text.HAL_UART_Receive_IT
                0x00000000       0xac D:\IOT\rtthread-v4.0\rt-thread\bsp\stm32\libraries\STM32F4xx_HAL\STM32F4xx_HAL_Driver\Src\stm32f4xx_hal_uart.o
 .text.HAL_UART_DMAPause
                0x00000000       0xc8 D:\IOT\rtthread-v4.0\rt-thread\bsp\stm32\libraries\STM32F4xx_HAL\STM32F4xx_HAL_Driver\Src\stm32f4xx_hal_uart.o
 .text.HAL_UART_DMAResume
                0x00000000       0xa4 D:\IOT\rtthread-v4.0\rt-thread\bsp\stm32\libraries\STM32F4xx_HAL\STM32F4xx_HAL_Driver\Src\stm32f4xx_hal_uart.o
 .text.HAL_UART_DMAStop
                0x00000000       0xb8 D:\IOT\rtthread-v4.0\rt-thread\bsp\stm32\libraries\STM32F4xx_HAL\STM32F4xx_HAL_Driver\Src\stm32f4xx_hal_uart.o
 .text.HAL_UART_Abort
                0x00000000      0x104 D:\IOT\rtthread-v4.0\rt-thread\bsp\stm32\libraries\STM32F4xx_HAL\STM32F4xx_HAL_Driver\Src\stm32f4xx_hal_uart.o
 .text.HAL_UART_AbortTransmit
                0x00000000       0x88 D:\IOT\rtthread-v4.0\rt-thread\bsp\stm32\libraries\STM32F4xx_HAL\STM32F4xx_HAL_Driver\Src\stm32f4xx_hal_uart.o
 .text.HAL_UART_AbortReceive
                0x00000000       0x98 D:\IOT\rtthread-v4.0\rt-thread\bsp\stm32\libraries\STM32F4xx_HAL\STM32F4xx_HAL_Driver\Src\stm32f4xx_hal_uart.o
 .text.HAL_UART_Abort_IT
                0x00000000      0x148 D:\IOT\rtthread-v4.0\rt-thread\bsp\stm32\libraries\STM32F4xx_HAL\STM32F4xx_HAL_Driver\Src\stm32f4xx_hal_uart.o
 .text.HAL_UART_AbortTransmit_IT
                0x00000000       0xa0 D:\IOT\rtthread-v4.0\rt-thread\bsp\stm32\libraries\STM32F4xx_HAL\STM32F4xx_HAL_Driver\Src\stm32f4xx_hal_uart.o
 .text.HAL_UART_AbortReceive_IT
                0x00000000       0xb0 D:\IOT\rtthread-v4.0\rt-thread\bsp\stm32\libraries\STM32F4xx_HAL\STM32F4xx_HAL_Driver\Src\stm32f4xx_hal_uart.o
 .text.HAL_UART_TxCpltCallback
                0x00000000       0x14 D:\IOT\rtthread-v4.0\rt-thread\bsp\stm32\libraries\STM32F4xx_HAL\STM32F4xx_HAL_Driver\Src\stm32f4xx_hal_uart.o
 .text.HAL_UART_RxCpltCallback
                0x00000000       0x14 D:\IOT\rtthread-v4.0\rt-thread\bsp\stm32\libraries\STM32F4xx_HAL\STM32F4xx_HAL_Driver\Src\stm32f4xx_hal_uart.o
 .text.HAL_UART_RxHalfCpltCallback
                0x00000000       0x14 D:\IOT\rtthread-v4.0\rt-thread\bsp\stm32\libraries\STM32F4xx_HAL\STM32F4xx_HAL_Driver\Src\stm32f4xx_hal_uart.o
 .text.HAL_UART_ErrorCallback
                0x00000000       0x14 D:\IOT\rtthread-v4.0\rt-thread\bsp\stm32\libraries\STM32F4xx_HAL\STM32F4xx_HAL_Driver\Src\stm32f4xx_hal_uart.o
 .text.HAL_UART_AbortCpltCallback
                0x00000000       0x14 D:\IOT\rtthread-v4.0\rt-thread\bsp\stm32\libraries\STM32F4xx_HAL\STM32F4xx_HAL_Driver\Src\stm32f4xx_hal_uart.o
 .text.HAL_UART_AbortTransmitCpltCallback
                0x00000000       0x14 D:\IOT\rtthread-v4.0\rt-thread\bsp\stm32\libraries\STM32F4xx_HAL\STM32F4xx_HAL_Driver\Src\stm32f4xx_hal_uart.o
 .text.HAL_UART_AbortReceiveCpltCallback
                0x00000000       0x14 D:\IOT\rtthread-v4.0\rt-thread\bsp\stm32\libraries\STM32F4xx_HAL\STM32F4xx_HAL_Driver\Src\stm32f4xx_hal_uart.o
 .text.HAL_LIN_SendBreak
                0x00000000       0x54 D:\IOT\rtthread-v4.0\rt-thread\bsp\stm32\libraries\STM32F4xx_HAL\STM32F4xx_HAL_Driver\Src\stm32f4xx_hal_uart.o
 .text.HAL_MultiProcessor_EnterMuteMode
                0x00000000       0x54 D:\IOT\rtthread-v4.0\rt-thread\bsp\stm32\libraries\STM32F4xx_HAL\STM32F4xx_HAL_Driver\Src\stm32f4xx_hal_uart.o
 .text.HAL_MultiProcessor_ExitMuteMode
                0x00000000       0x54 D:\IOT\rtthread-v4.0\rt-thread\bsp\stm32\libraries\STM32F4xx_HAL\STM32F4xx_HAL_Driver\Src\stm32f4xx_hal_uart.o
 .text.HAL_HalfDuplex_EnableTransmitter
                0x00000000       0x68 D:\IOT\rtthread-v4.0\rt-thread\bsp\stm32\libraries\STM32F4xx_HAL\STM32F4xx_HAL_Driver\Src\stm32f4xx_hal_uart.o
 .text.HAL_HalfDuplex_EnableReceiver
                0x00000000       0x68 D:\IOT\rtthread-v4.0\rt-thread\bsp\stm32\libraries\STM32F4xx_HAL\STM32F4xx_HAL_Driver\Src\stm32f4xx_hal_uart.o
 .text.HAL_UART_GetState
                0x00000000       0x3c D:\IOT\rtthread-v4.0\rt-thread\bsp\stm32\libraries\STM32F4xx_HAL\STM32F4xx_HAL_Driver\Src\stm32f4xx_hal_uart.o
 .text.HAL_UART_GetError
                0x00000000       0x18 D:\IOT\rtthread-v4.0\rt-thread\bsp\stm32\libraries\STM32F4xx_HAL\STM32F4xx_HAL_Driver\Src\stm32f4xx_hal_uart.o
 .text.UART_WaitOnFlagUntilTimeout
                0x00000000       0x94 D:\IOT\rtthread-v4.0\rt-thread\bsp\stm32\libraries\STM32F4xx_HAL\STM32F4xx_HAL_Driver\Src\stm32f4xx_hal_uart.o
 .text.UART_DMATxAbortCallback
                0x00000000       0x5c D:\IOT\rtthread-v4.0\rt-thread\bsp\stm32\libraries\STM32F4xx_HAL\STM32F4xx_HAL_Driver\Src\stm32f4xx_hal_uart.o
 .text.UART_DMARxAbortCallback
                0x00000000       0x5c D:\IOT\rtthread-v4.0\rt-thread\bsp\stm32\libraries\STM32F4xx_HAL\STM32F4xx_HAL_Driver\Src\stm32f4xx_hal_uart.o
 .text.UART_DMATxOnlyAbortCallback
                0x00000000       0x2c D:\IOT\rtthread-v4.0\rt-thread\bsp\stm32\libraries\STM32F4xx_HAL\STM32F4xx_HAL_Driver\Src\stm32f4xx_hal_uart.o
 .text.UART_DMARxOnlyAbortCallback
                0x00000000       0x2c D:\IOT\rtthread-v4.0\rt-thread\bsp\stm32\libraries\STM32F4xx_HAL\STM32F4xx_HAL_Driver\Src\stm32f4xx_hal_uart.o
 .text          0x00000000        0x0 D:\IOT\rtthread-v4.0\rt-thread\bsp\stm32\libraries\STM32F4xx_HAL\STM32F4xx_HAL_Driver\Src\stm32f4xx_hal_usart.o
 .data          0x00000000        0x0 D:\IOT\rtthread-v4.0\rt-thread\bsp\stm32\libraries\STM32F4xx_HAL\STM32F4xx_HAL_Driver\Src\stm32f4xx_hal_usart.o
 .bss           0x00000000        0x0 D:\IOT\rtthread-v4.0\rt-thread\bsp\stm32\libraries\STM32F4xx_HAL\STM32F4xx_HAL_Driver\Src\stm32f4xx_hal_usart.o
 .debug_info    0x00000000       0x90 D:\IOT\rtthread-v4.0\rt-thread\bsp\stm32\libraries\STM32F4xx_HAL\STM32F4xx_HAL_Driver\Src\stm32f4xx_hal_usart.o
 .debug_abbrev  0x00000000       0x4b D:\IOT\rtthread-v4.0\rt-thread\bsp\stm32\libraries\STM32F4xx_HAL\STM32F4xx_HAL_Driver\Src\stm32f4xx_hal_usart.o
 .debug_aranges
                0x00000000       0x18 D:\IOT\rtthread-v4.0\rt-thread\bsp\stm32\libraries\STM32F4xx_HAL\STM32F4xx_HAL_Driver\Src\stm32f4xx_hal_usart.o
 .debug_line    0x00000000       0xc8 D:\IOT\rtthread-v4.0\rt-thread\bsp\stm32\libraries\STM32F4xx_HAL\STM32F4xx_HAL_Driver\Src\stm32f4xx_hal_usart.o
 .debug_str     0x00000000      0x210 D:\IOT\rtthread-v4.0\rt-thread\bsp\stm32\libraries\STM32F4xx_HAL\STM32F4xx_HAL_Driver\Src\stm32f4xx_hal_usart.o
 .comment       0x00000000       0x6f D:\IOT\rtthread-v4.0\rt-thread\bsp\stm32\libraries\STM32F4xx_HAL\STM32F4xx_HAL_Driver\Src\stm32f4xx_hal_usart.o
 .ARM.attributes
                0x00000000       0x39 D:\IOT\rtthread-v4.0\rt-thread\bsp\stm32\libraries\STM32F4xx_HAL\STM32F4xx_HAL_Driver\Src\stm32f4xx_hal_usart.o
 .text          0x00000000        0x0 D:\IOT\rtthread-v4.0\rt-thread\bsp\stm32\libraries\HAL_Drivers\drv_gpio.o
 .data          0x00000000        0x0 D:\IOT\rtthread-v4.0\rt-thread\bsp\stm32\libraries\HAL_Drivers\drv_gpio.o
 .bss           0x00000000        0x0 D:\IOT\rtthread-v4.0\rt-thread\bsp\stm32\libraries\HAL_Drivers\drv_gpio.o
 .text          0x00000000        0x0 D:\IOT\rtthread-v4.0\rt-thread\bsp\stm32\libraries\HAL_Drivers\drv_usart.o
 .data          0x00000000        0x0 D:\IOT\rtthread-v4.0\rt-thread\bsp\stm32\libraries\HAL_Drivers\drv_usart.o
 .bss           0x00000000        0x0 D:\IOT\rtthread-v4.0\rt-thread\bsp\stm32\libraries\HAL_Drivers\drv_usart.o
 .text          0x00000000        0x0 D:\IOT\rtthread-v4.0\rt-thread\bsp\stm32\libraries\HAL_Drivers\drv_common.o
 .data          0x00000000        0x0 D:\IOT\rtthread-v4.0\rt-thread\bsp\stm32\libraries\HAL_Drivers\drv_common.o
 .bss           0x00000000        0x0 D:\IOT\rtthread-v4.0\rt-thread\bsp\stm32\libraries\HAL_Drivers\drv_common.o
 .text.HAL_SuspendTick
                0x00000000       0x10 D:\IOT\rtthread-v4.0\rt-thread\bsp\stm32\libraries\HAL_Drivers\drv_common.o
 .text.HAL_ResumeTick
                0x00000000       0x10 D:\IOT\rtthread-v4.0\rt-thread\bsp\stm32\libraries\HAL_Drivers\drv_common.o
 .text.HAL_Delay
                0x00000000       0x18 D:\IOT\rtthread-v4.0\rt-thread\bsp\stm32\libraries\HAL_Drivers\drv_common.o
 .text.rt_hw_us_delay
                0x00000000       0x6c D:\IOT\rtthread-v4.0\rt-thread\bsp\stm32\libraries\HAL_Drivers\drv_common.o
 .text          0x00000000      0x370 c:/myprogram/rt_thread/env/tools/gnu_gcc/arm_gcc/mingw/bin/../lib/gcc/arm-none-eabi/5.4.1/armv7e-m/fpu\libgcc.a(_arm_addsubdf3.o)
 .data          0x00000000        0x0 c:/myprogram/rt_thread/env/tools/gnu_gcc/arm_gcc/mingw/bin/../lib/gcc/arm-none-eabi/5.4.1/armv7e-m/fpu\libgcc.a(_arm_addsubdf3.o)
 .bss           0x00000000        0x0 c:/myprogram/rt_thread/env/tools/gnu_gcc/arm_gcc/mingw/bin/../lib/gcc/arm-none-eabi/5.4.1/armv7e-m/fpu\libgcc.a(_arm_addsubdf3.o)
 .ARM.attributes
                0x00000000       0x22 c:/myprogram/rt_thread/env/tools/gnu_gcc/arm_gcc/mingw/bin/../lib/gcc/arm-none-eabi/5.4.1/armv7e-m/fpu\libgcc.a(_arm_addsubdf3.o)
 .text          0x00000000      0x424 c:/myprogram/rt_thread/env/tools/gnu_gcc/arm_gcc/mingw/bin/../lib/gcc/arm-none-eabi/5.4.1/armv7e-m/fpu\libgcc.a(_arm_muldivdf3.o)
 .data          0x00000000        0x0 c:/myprogram/rt_thread/env/tools/gnu_gcc/arm_gcc/mingw/bin/../lib/gcc/arm-none-eabi/5.4.1/armv7e-m/fpu\libgcc.a(_arm_muldivdf3.o)
 .bss           0x00000000        0x0 c:/myprogram/rt_thread/env/tools/gnu_gcc/arm_gcc/mingw/bin/../lib/gcc/arm-none-eabi/5.4.1/armv7e-m/fpu\libgcc.a(_arm_muldivdf3.o)
 .ARM.attributes
                0x00000000       0x22 c:/myprogram/rt_thread/env/tools/gnu_gcc/arm_gcc/mingw/bin/../lib/gcc/arm-none-eabi/5.4.1/armv7e-m/fpu\libgcc.a(_arm_muldivdf3.o)
 .text          0x00000000       0x50 c:/myprogram/rt_thread/env/tools/gnu_gcc/arm_gcc/mingw/bin/../lib/gcc/arm-none-eabi/5.4.1/armv7e-m/fpu\libgcc.a(_arm_fixdfsi.o)
 .data          0x00000000        0x0 c:/myprogram/rt_thread/env/tools/gnu_gcc/arm_gcc/mingw/bin/../lib/gcc/arm-none-eabi/5.4.1/armv7e-m/fpu\libgcc.a(_arm_fixdfsi.o)
 .bss           0x00000000        0x0 c:/myprogram/rt_thread/env/tools/gnu_gcc/arm_gcc/mingw/bin/../lib/gcc/arm-none-eabi/5.4.1/armv7e-m/fpu\libgcc.a(_arm_fixdfsi.o)
 .ARM.attributes
                0x00000000       0x22 c:/myprogram/rt_thread/env/tools/gnu_gcc/arm_gcc/mingw/bin/../lib/gcc/arm-none-eabi/5.4.1/armv7e-m/fpu\libgcc.a(_arm_fixdfsi.o)
 .data          0x00000000        0x0 c:/myprogram/rt_thread/env/tools/gnu_gcc/arm_gcc/mingw/bin/../lib/gcc/arm-none-eabi/5.4.1/armv7e-m/fpu\libgcc.a(_aeabi_uldivmod.o)
 .bss           0x00000000        0x0 c:/myprogram/rt_thread/env/tools/gnu_gcc/arm_gcc/mingw/bin/../lib/gcc/arm-none-eabi/5.4.1/armv7e-m/fpu\libgcc.a(_aeabi_uldivmod.o)
 .data          0x00000000        0x0 c:/myprogram/rt_thread/env/tools/gnu_gcc/arm_gcc/mingw/bin/../lib/gcc/arm-none-eabi/5.4.1/armv7e-m/fpu\libgcc.a(_udivmoddi4.o)
 .bss           0x00000000        0x0 c:/myprogram/rt_thread/env/tools/gnu_gcc/arm_gcc/mingw/bin/../lib/gcc/arm-none-eabi/5.4.1/armv7e-m/fpu\libgcc.a(_udivmoddi4.o)
 .ARM.extab     0x00000000        0x0 c:/myprogram/rt_thread/env/tools/gnu_gcc/arm_gcc/mingw/bin/../lib/gcc/arm-none-eabi/5.4.1/armv7e-m/fpu\libgcc.a(_udivmoddi4.o)
 .data          0x00000000        0x0 c:/myprogram/rt_thread/env/tools/gnu_gcc/arm_gcc/mingw/bin/../lib/gcc/arm-none-eabi/5.4.1/armv7e-m/fpu\libgcc.a(_dvmd_tls.o)
 .bss           0x00000000        0x0 c:/myprogram/rt_thread/env/tools/gnu_gcc/arm_gcc/mingw/bin/../lib/gcc/arm-none-eabi/5.4.1/armv7e-m/fpu\libgcc.a(_dvmd_tls.o)
 .text          0x00000000        0x0 c:/myprogram/rt_thread/env/tools/gnu_gcc/arm_gcc/mingw/bin/../lib/gcc/arm-none-eabi/5.4.1/../../../../arm-none-eabi/lib/armv7e-m/fpu\libc.a(lib_a-exit.o)
 .data          0x00000000        0x0 c:/myprogram/rt_thread/env/tools/gnu_gcc/arm_gcc/mingw/bin/../lib/gcc/arm-none-eabi/5.4.1/../../../../arm-none-eabi/lib/armv7e-m/fpu\libc.a(lib_a-exit.o)
 .bss           0x00000000        0x0 c:/myprogram/rt_thread/env/tools/gnu_gcc/arm_gcc/mingw/bin/../lib/gcc/arm-none-eabi/5.4.1/../../../../arm-none-eabi/lib/armv7e-m/fpu\libc.a(lib_a-exit.o)
 .text.exit     0x00000000       0x20 c:/myprogram/rt_thread/env/tools/gnu_gcc/arm_gcc/mingw/bin/../lib/gcc/arm-none-eabi/5.4.1/../../../../arm-none-eabi/lib/armv7e-m/fpu\libc.a(lib_a-exit.o)
 .debug_frame   0x00000000       0x28 c:/myprogram/rt_thread/env/tools/gnu_gcc/arm_gcc/mingw/bin/../lib/gcc/arm-none-eabi/5.4.1/../../../../arm-none-eabi/lib/armv7e-m/fpu\libc.a(lib_a-exit.o)
 .ARM.attributes
                0x00000000       0x34 c:/myprogram/rt_thread/env/tools/gnu_gcc/arm_gcc/mingw/bin/../lib/gcc/arm-none-eabi/5.4.1/../../../../arm-none-eabi/lib/armv7e-m/fpu\libc.a(lib_a-exit.o)
 .text          0x00000000        0x0 c:/myprogram/rt_thread/env/tools/gnu_gcc/arm_gcc/mingw/bin/../lib/gcc/arm-none-eabi/5.4.1/../../../../arm-none-eabi/lib/armv7e-m/fpu\libc.a(lib_a-impure.o)
 .data          0x00000000        0x0 c:/myprogram/rt_thread/env/tools/gnu_gcc/arm_gcc/mingw/bin/../lib/gcc/arm-none-eabi/5.4.1/../../../../arm-none-eabi/lib/armv7e-m/fpu\libc.a(lib_a-impure.o)
 .bss           0x00000000        0x0 c:/myprogram/rt_thread/env/tools/gnu_gcc/arm_gcc/mingw/bin/../lib/gcc/arm-none-eabi/5.4.1/../../../../arm-none-eabi/lib/armv7e-m/fpu\libc.a(lib_a-impure.o)
 .data._impure_ptr
                0x00000000        0x4 c:/myprogram/rt_thread/env/tools/gnu_gcc/arm_gcc/mingw/bin/../lib/gcc/arm-none-eabi/5.4.1/../../../../arm-none-eabi/lib/armv7e-m/fpu\libc.a(lib_a-impure.o)
 .text          0x00000000        0x0 c:/myprogram/rt_thread/env/tools/gnu_gcc/arm_gcc/mingw/bin/../lib/gcc/arm-none-eabi/5.4.1/../../../../arm-none-eabi/lib/armv7e-m/fpu\libc.a(lib_a-init.o)
 .data          0x00000000        0x0 c:/myprogram/rt_thread/env/tools/gnu_gcc/arm_gcc/mingw/bin/../lib/gcc/arm-none-eabi/5.4.1/../../../../arm-none-eabi/lib/armv7e-m/fpu\libc.a(lib_a-init.o)
 .bss           0x00000000        0x0 c:/myprogram/rt_thread/env/tools/gnu_gcc/arm_gcc/mingw/bin/../lib/gcc/arm-none-eabi/5.4.1/../../../../arm-none-eabi/lib/armv7e-m/fpu\libc.a(lib_a-init.o)
 .text.__libc_init_array
                0x00000000       0x50 c:/myprogram/rt_thread/env/tools/gnu_gcc/arm_gcc/mingw/bin/../lib/gcc/arm-none-eabi/5.4.1/../../../../arm-none-eabi/lib/armv7e-m/fpu\libc.a(lib_a-init.o)
 .debug_frame   0x00000000       0x2c c:/myprogram/rt_thread/env/tools/gnu_gcc/arm_gcc/mingw/bin/../lib/gcc/arm-none-eabi/5.4.1/../../../../arm-none-eabi/lib/armv7e-m/fpu\libc.a(lib_a-init.o)
 .ARM.attributes
                0x00000000       0x34 c:/myprogram/rt_thread/env/tools/gnu_gcc/arm_gcc/mingw/bin/../lib/gcc/arm-none-eabi/5.4.1/../../../../arm-none-eabi/lib/armv7e-m/fpu\libc.a(lib_a-init.o)
 .text          0x00000000        0x0 c:/myprogram/rt_thread/env/tools/gnu_gcc/arm_gcc/mingw/bin/../lib/gcc/arm-none-eabi/5.4.1/../../../../arm-none-eabi/lib/armv7e-m/fpu\libc.a(lib_a-__call_atexit.o)
 .data          0x00000000        0x0 c:/myprogram/rt_thread/env/tools/gnu_gcc/arm_gcc/mingw/bin/../lib/gcc/arm-none-eabi/5.4.1/../../../../arm-none-eabi/lib/armv7e-m/fpu\libc.a(lib_a-__call_atexit.o)
 .bss           0x00000000        0x0 c:/myprogram/rt_thread/env/tools/gnu_gcc/arm_gcc/mingw/bin/../lib/gcc/arm-none-eabi/5.4.1/../../../../arm-none-eabi/lib/armv7e-m/fpu\libc.a(lib_a-__call_atexit.o)
 .text.__call_exitprocs
                0x00000000       0xd8 c:/myprogram/rt_thread/env/tools/gnu_gcc/arm_gcc/mingw/bin/../lib/gcc/arm-none-eabi/5.4.1/../../../../arm-none-eabi/lib/armv7e-m/fpu\libc.a(lib_a-__call_atexit.o)
 .text          0x00000000        0x0 c:/myprogram/rt_thread/env/tools/gnu_gcc/arm_gcc/mingw/bin/../lib/gcc/arm-none-eabi/5.4.1/../../../../arm-none-eabi/lib/armv7e-m/fpu\libc.a(lib_a-atexit.o)
 .data          0x00000000        0x0 c:/myprogram/rt_thread/env/tools/gnu_gcc/arm_gcc/mingw/bin/../lib/gcc/arm-none-eabi/5.4.1/../../../../arm-none-eabi/lib/armv7e-m/fpu\libc.a(lib_a-atexit.o)
 .bss           0x00000000        0x0 c:/myprogram/rt_thread/env/tools/gnu_gcc/arm_gcc/mingw/bin/../lib/gcc/arm-none-eabi/5.4.1/../../../../arm-none-eabi/lib/armv7e-m/fpu\libc.a(lib_a-atexit.o)
 .text          0x00000000        0x0 c:/myprogram/rt_thread/env/tools/gnu_gcc/arm_gcc/mingw/bin/../lib/gcc/arm-none-eabi/5.4.1/../../../../arm-none-eabi/lib/armv7e-m/fpu\libc.a(lib_a-fini.o)
 .data          0x00000000        0x0 c:/myprogram/rt_thread/env/tools/gnu_gcc/arm_gcc/mingw/bin/../lib/gcc/arm-none-eabi/5.4.1/../../../../arm-none-eabi/lib/armv7e-m/fpu\libc.a(lib_a-fini.o)
 .bss           0x00000000        0x0 c:/myprogram/rt_thread/env/tools/gnu_gcc/arm_gcc/mingw/bin/../lib/gcc/arm-none-eabi/5.4.1/../../../../arm-none-eabi/lib/armv7e-m/fpu\libc.a(lib_a-fini.o)
 .text          0x00000000        0x0 c:/myprogram/rt_thread/env/tools/gnu_gcc/arm_gcc/mingw/bin/../lib/gcc/arm-none-eabi/5.4.1/../../../../arm-none-eabi/lib/armv7e-m/fpu\libc.a(lib_a-__atexit.o)
 .data          0x00000000        0x0 c:/myprogram/rt_thread/env/tools/gnu_gcc/arm_gcc/mingw/bin/../lib/gcc/arm-none-eabi/5.4.1/../../../../arm-none-eabi/lib/armv7e-m/fpu\libc.a(lib_a-__atexit.o)
 .bss           0x00000000        0x0 c:/myprogram/rt_thread/env/tools/gnu_gcc/arm_gcc/mingw/bin/../lib/gcc/arm-none-eabi/5.4.1/../../../../arm-none-eabi/lib/armv7e-m/fpu\libc.a(lib_a-__atexit.o)
 .text          0x00000000        0x0 c:/myprogram/rt_thread/env/tools/gnu_gcc/arm_gcc/mingw/bin/../lib/gcc/arm-none-eabi/5.4.1/armv7e-m/fpu/crtend.o
 .data          0x00000000        0x0 c:/myprogram/rt_thread/env/tools/gnu_gcc/arm_gcc/mingw/bin/../lib/gcc/arm-none-eabi/5.4.1/armv7e-m/fpu/crtend.o
 .bss           0x00000000        0x0 c:/myprogram/rt_thread/env/tools/gnu_gcc/arm_gcc/mingw/bin/../lib/gcc/arm-none-eabi/5.4.1/armv7e-m/fpu/crtend.o
 .eh_frame      0x00000000        0x4 c:/myprogram/rt_thread/env/tools/gnu_gcc/arm_gcc/mingw/bin/../lib/gcc/arm-none-eabi/5.4.1/armv7e-m/fpu/crtend.o
 .jcr           0x00000000        0x4 c:/myprogram/rt_thread/env/tools/gnu_gcc/arm_gcc/mingw/bin/../lib/gcc/arm-none-eabi/5.4.1/armv7e-m/fpu/crtend.o
 .ARM.attributes
                0x00000000       0x34 c:/myprogram/rt_thread/env/tools/gnu_gcc/arm_gcc/mingw/bin/../lib/gcc/arm-none-eabi/5.4.1/armv7e-m/fpu/crtend.o
 .text          0x00000000        0x0 c:/myprogram/rt_thread/env/tools/gnu_gcc/arm_gcc/mingw/bin/../lib/gcc/arm-none-eabi/5.4.1/armv7e-m/fpu/crtn.o
 .data          0x00000000        0x0 c:/myprogram/rt_thread/env/tools/gnu_gcc/arm_gcc/mingw/bin/../lib/gcc/arm-none-eabi/5.4.1/armv7e-m/fpu/crtn.o
 .bss           0x00000000        0x0 c:/myprogram/rt_thread/env/tools/gnu_gcc/arm_gcc/mingw/bin/../lib/gcc/arm-none-eabi/5.4.1/armv7e-m/fpu/crtn.o
 .init          0x00000000        0x8 c:/myprogram/rt_thread/env/tools/gnu_gcc/arm_gcc/mingw/bin/../lib/gcc/arm-none-eabi/5.4.1/armv7e-m/fpu/crtn.o
 .fini          0x00000000        0x8 c:/myprogram/rt_thread/env/tools/gnu_gcc/arm_gcc/mingw/bin/../lib/gcc/arm-none-eabi/5.4.1/armv7e-m/fpu/crtn.o
 .ARM.attributes
                0x00000000       0x22 c:/myprogram/rt_thread/env/tools/gnu_gcc/arm_gcc/mingw/bin/../lib/gcc/arm-none-eabi/5.4.1/armv7e-m/fpu/crtn.o

Memory Configuration

Name             Origin             Length             Attributes
CODE             0x08000000         0x00100000         xr
RAM1             0x20000000         0x00020000         rw
RAM2             0x10000000         0x00010000         rw
*default*        0x00000000         0xffffffff

Linker script and memory map

LOAD c:/myprogram/rt_thread/env/tools/gnu_gcc/arm_gcc/mingw/bin/../lib/gcc/arm-none-eabi/5.4.1/armv7e-m/fpu/crti.o
LOAD c:/myprogram/rt_thread/env/tools/gnu_gcc/arm_gcc/mingw/bin/../lib/gcc/arm-none-eabi/5.4.1/armv7e-m/fpu/crtbegin.o
LOAD c:/myprogram/rt_thread/env/tools/gnu_gcc/arm_gcc/mingw/bin/../lib/gcc/arm-none-eabi/5.4.1/../../../../arm-none-eabi/lib/armv7e-m/fpu/crt0.o
LOAD build\applications\main.o
LOAD build\board\board.o
LOAD build\board\CubeMX_Config\Src\stm32f4xx_hal_msp.o
LOAD D:\IOT\rtthread-v4.0\rt-thread\bsp\stm32\libraries\STM32F4xx_HAL\CMSIS\Device\ST\STM32F4xx\Source\Templates\gcc\startup_stm32f407xx.o
LOAD build\kernel\src\clock.o
LOAD build\kernel\src\components.o
LOAD build\kernel\src\device.o
LOAD build\kernel\src\idle.o
LOAD build\kernel\src\ipc.o
LOAD build\kernel\src\irq.o
LOAD build\kernel\src\kservice.o
LOAD build\kernel\src\mem.o
LOAD build\kernel\src\mempool.o
LOAD build\kernel\src\object.o
LOAD build\kernel\src\scheduler.o
LOAD build\kernel\src\signal.o
LOAD build\kernel\src\thread.o
LOAD build\kernel\src\timer.o
LOAD build\kernel\libcpu\arm\common\backtrace.o
LOAD build\kernel\libcpu\arm\common\div0.o
LOAD build\kernel\libcpu\arm\common\showmem.o
LOAD build\kernel\libcpu\arm\cortex-m4\cpuport.o
LOAD build\kernel\libcpu\arm\cortex-m4\context_gcc.o
LOAD build\kernel\components\drivers\misc\pin.o
LOAD build\kernel\components\drivers\serial\serial.o
LOAD build\kernel\components\drivers\src\completion.o
LOAD build\kernel\components\drivers\src\dataqueue.o
LOAD build\kernel\components\drivers\src\pipe.o
LOAD build\kernel\components\drivers\src\ringblk_buf.o
LOAD build\kernel\components\drivers\src\ringbuffer.o
LOAD build\kernel\components\drivers\src\waitqueue.o
LOAD build\kernel\components\drivers\src\workqueue.o
LOAD build\kernel\components\finsh\shell.o
LOAD build\kernel\components\finsh\cmd.o
LOAD build\kernel\components\finsh\msh.o
LOAD build\kernel\components\libc\compilers\minilibc\ctype.o
LOAD build\kernel\components\libc\compilers\minilibc\math.o
LOAD build\kernel\components\libc\compilers\minilibc\qsort.o
LOAD build\kernel\components\libc\compilers\minilibc\rand.o
LOAD build\kernel\components\libc\compilers\minilibc\stdlib.o
LOAD build\kernel\components\libc\compilers\minilibc\string.o
LOAD build\kernel\components\libc\compilers\minilibc\time.o
LOAD D:\IOT\rtthread-v4.0\rt-thread\bsp\stm32\libraries\STM32F4xx_HAL\CMSIS\Device\ST\STM32F4xx\Source\Templates\system_stm32f4xx.o
LOAD D:\IOT\rtthread-v4.0\rt-thread\bsp\stm32\libraries\STM32F4xx_HAL\STM32F4xx_HAL_Driver\Src\stm32f4xx_hal.o
LOAD D:\IOT\rtthread-v4.0\rt-thread\bsp\stm32\libraries\STM32F4xx_HAL\STM32F4xx_HAL_Driver\Src\stm32f4xx_hal_cec.o
LOAD D:\IOT\rtthread-v4.0\rt-thread\bsp\stm32\libraries\STM32F4xx_HAL\STM32F4xx_HAL_Driver\Src\stm32f4xx_hal_cortex.o
LOAD D:\IOT\rtthread-v4.0\rt-thread\bsp\stm32\libraries\STM32F4xx_HAL\STM32F4xx_HAL_Driver\Src\stm32f4xx_hal_crc.o
LOAD D:\IOT\rtthread-v4.0\rt-thread\bsp\stm32\libraries\STM32F4xx_HAL\STM32F4xx_HAL_Driver\Src\stm32f4xx_hal_cryp.o
LOAD D:\IOT\rtthread-v4.0\rt-thread\bsp\stm32\libraries\STM32F4xx_HAL\STM32F4xx_HAL_Driver\Src\stm32f4xx_hal_cryp_ex.o
LOAD D:\IOT\rtthread-v4.0\rt-thread\bsp\stm32\libraries\STM32F4xx_HAL\STM32F4xx_HAL_Driver\Src\stm32f4xx_hal_dma.o
LOAD D:\IOT\rtthread-v4.0\rt-thread\bsp\stm32\libraries\STM32F4xx_HAL\STM32F4xx_HAL_Driver\Src\stm32f4xx_hal_dma_ex.o
LOAD D:\IOT\rtthread-v4.0\rt-thread\bsp\stm32\libraries\STM32F4xx_HAL\STM32F4xx_HAL_Driver\Src\stm32f4xx_hal_pwr.o
LOAD D:\IOT\rtthread-v4.0\rt-thread\bsp\stm32\libraries\STM32F4xx_HAL\STM32F4xx_HAL_Driver\Src\stm32f4xx_hal_pwr_ex.o
LOAD D:\IOT\rtthread-v4.0\rt-thread\bsp\stm32\libraries\STM32F4xx_HAL\STM32F4xx_HAL_Driver\Src\stm32f4xx_hal_rcc.o
LOAD D:\IOT\rtthread-v4.0\rt-thread\bsp\stm32\libraries\STM32F4xx_HAL\STM32F4xx_HAL_Driver\Src\stm32f4xx_hal_rcc_ex.o
LOAD D:\IOT\rtthread-v4.0\rt-thread\bsp\stm32\libraries\STM32F4xx_HAL\STM32F4xx_HAL_Driver\Src\stm32f4xx_hal_rng.o
LOAD D:\IOT\rtthread-v4.0\rt-thread\bsp\stm32\libraries\STM32F4xx_HAL\STM32F4xx_HAL_Driver\Src\stm32f4xx_hal_gpio.o
LOAD D:\IOT\rtthread-v4.0\rt-thread\bsp\stm32\libraries\STM32F4xx_HAL\STM32F4xx_HAL_Driver\Src\stm32f4xx_hal_uart.o
LOAD D:\IOT\rtthread-v4.0\rt-thread\bsp\stm32\libraries\STM32F4xx_HAL\STM32F4xx_HAL_Driver\Src\stm32f4xx_hal_usart.o
LOAD D:\IOT\rtthread-v4.0\rt-thread\bsp\stm32\libraries\HAL_Drivers\drv_gpio.o
LOAD D:\IOT\rtthread-v4.0\rt-thread\bsp\stm32\libraries\HAL_Drivers\drv_usart.o
LOAD D:\IOT\rtthread-v4.0\rt-thread\bsp\stm32\libraries\HAL_Drivers\drv_common.o
START GROUP
LOAD c:/myprogram/rt_thread/env/tools/gnu_gcc/arm_gcc/mingw/bin/../lib/gcc/arm-none-eabi/5.4.1/armv7e-m/fpu\libgcc.a
LOAD c:/myprogram/rt_thread/env/tools/gnu_gcc/arm_gcc/mingw/bin/../lib/gcc/arm-none-eabi/5.4.1/../../../../arm-none-eabi/lib/armv7e-m/fpu\libc.a
END GROUP
LOAD c:/myprogram/rt_thread/env/tools/gnu_gcc/arm_gcc/mingw/bin/../lib/gcc/arm-none-eabi/5.4.1/armv7e-m/fpu/crtend.o
LOAD c:/myprogram/rt_thread/env/tools/gnu_gcc/arm_gcc/mingw/bin/../lib/gcc/arm-none-eabi/5.4.1/armv7e-m/fpu/crtn.o
                0x00000200                _system_stack_size = 0x200

.text           0x08000000     0xe16c
                0x08000000                . = ALIGN (0x4)
                0x08000000                _stext = .
 *(.isr_vector)
 .isr_vector    0x08000000      0x188 D:\IOT\rtthread-v4.0\rt-thread\bsp\stm32\libraries\STM32F4xx_HAL\CMSIS\Device\ST\STM32F4xx\Source\Templates\gcc\startup_stm32f407xx.o
                0x08000000                g_pfnVectors
                0x08000188                . = ALIGN (0x4)
 *(.text)
 .text          0x08000188       0x5c c:/myprogram/rt_thread/env/tools/gnu_gcc/arm_gcc/mingw/bin/../lib/gcc/arm-none-eabi/5.4.1/armv7e-m/fpu/crtbegin.o
 .text          0x080001e4      0x138 build\kernel\libcpu\arm\cortex-m4\context_gcc.o
                0x080001e4                rt_hw_interrupt_disable
                0x080001ec                rt_hw_interrupt_enable
                0x080001f2                rt_hw_context_switch_interrupt
                0x080001f2                rt_hw_context_switch
                0x08000212                PendSV_Handler
                0x0800027e                rt_hw_context_switch_to
                0x080002c6                rt_hw_interrupt_thread_switch
                0x080002ca                HardFault_Handler
 .text          0x0800031c       0x30 c:/myprogram/rt_thread/env/tools/gnu_gcc/arm_gcc/mingw/bin/../lib/gcc/arm-none-eabi/5.4.1/armv7e-m/fpu\libgcc.a(_aeabi_uldivmod.o)
                0x0800031c                __aeabi_uldivmod
 .text          0x0800034c      0x2e4 c:/myprogram/rt_thread/env/tools/gnu_gcc/arm_gcc/mingw/bin/../lib/gcc/arm-none-eabi/5.4.1/armv7e-m/fpu\libgcc.a(_udivmoddi4.o)
                0x0800034c                __udivmoddi4
 .text          0x08000630        0x4 c:/myprogram/rt_thread/env/tools/gnu_gcc/arm_gcc/mingw/bin/../lib/gcc/arm-none-eabi/5.4.1/armv7e-m/fpu\libgcc.a(_dvmd_tls.o)
                0x08000630                __aeabi_idiv0
                0x08000630                __aeabi_ldiv0
 *(.text.*)
 .text.main     0x08000634       0x48 build\applications\main.o
                0x08000634                main
 .text.SystemClock_Config
                0x0800067c       0xe0 build\board\board.o
                0x0800067c                SystemClock_Config
 .text.HAL_MspInit
                0x0800075c       0x50 build\board\CubeMX_Config\Src\stm32f4xx_hal_msp.o
                0x0800075c                HAL_MspInit
 .text.HAL_UART_MspInit
                0x080007ac       0x90 build\board\CubeMX_Config\Src\stm32f4xx_hal_msp.o
                0x080007ac                HAL_UART_MspInit
 .text.Reset_Handler
                0x0800083c       0x4c D:\IOT\rtthread-v4.0\rt-thread\bsp\stm32\libraries\STM32F4xx_HAL\CMSIS\Device\ST\STM32F4xx\Source\Templates\gcc\startup_stm32f407xx.o
                0x0800083c                Reset_Handler
 .text.Default_Handler
                0x08000888        0x2 D:\IOT\rtthread-v4.0\rt-thread\bsp\stm32\libraries\STM32F4xx_HAL\CMSIS\Device\ST\STM32F4xx\Source\Templates\gcc\startup_stm32f407xx.o
                0x08000888                RTC_Alarm_IRQHandler
                0x08000888                HASH_RNG_IRQHandler
                0x08000888                TIM8_CC_IRQHandler
                0x08000888                DebugMon_Handler
                0x08000888                TIM1_CC_IRQHandler
                0x08000888                DMA2_Stream5_IRQHandler
                0x08000888                DMA1_Stream5_IRQHandler
                0x08000888                PVD_IRQHandler
                0x08000888                SDIO_IRQHandler
                0x08000888                TAMP_STAMP_IRQHandler
                0x08000888                NMI_Handler
                0x08000888                CAN2_RX1_IRQHandler
                0x08000888                TIM8_TRG_COM_TIM14_IRQHandler
                0x08000888                TIM1_UP_TIM10_IRQHandler
                0x08000888                TIM8_UP_TIM13_IRQHandler
                0x08000888                I2C3_ER_IRQHandler
                0x08000888                I2C2_EV_IRQHandler
                0x08000888                DMA1_Stream2_IRQHandler
                0x08000888                CAN1_RX0_IRQHandler
                0x08000888                FPU_IRQHandler
                0x08000888                OTG_HS_WKUP_IRQHandler
                0x08000888                UsageFault_Handler
                0x08000888                CAN2_SCE_IRQHandler
                0x08000888                DMA2_Stream2_IRQHandler
                0x08000888                SPI1_IRQHandler
                0x08000888                TIM6_DAC_IRQHandler
                0x08000888                TIM1_BRK_TIM9_IRQHandler
                0x08000888                DCMI_IRQHandler
                0x08000888                CAN2_RX0_IRQHandler
                0x08000888                DMA2_Stream3_IRQHandler
                0x08000888                USART6_IRQHandler
                0x08000888                USART3_IRQHandler
                0x08000888                CAN1_RX1_IRQHandler
                0x08000888                UART5_IRQHandler
                0x08000888                DMA2_Stream0_IRQHandler
                0x08000888                TIM4_IRQHandler
                0x08000888                I2C1_EV_IRQHandler
                0x08000888                DMA1_Stream6_IRQHandler
                0x08000888                DMA1_Stream1_IRQHandler
                0x08000888                UART4_IRQHandler
                0x08000888                TIM3_IRQHandler
                0x08000888                RCC_IRQHandler
                0x08000888                TIM8_BRK_TIM12_IRQHandler
                0x08000888                Default_Handler
                0x08000888                ADC_IRQHandler
                0x08000888                DMA1_Stream7_IRQHandler
                0x08000888                TIM7_IRQHandler
                0x08000888                CAN2_TX_IRQHandler
                0x08000888                TIM5_IRQHandler
                0x08000888                DMA2_Stream7_IRQHandler
                0x08000888                I2C3_EV_IRQHandler
                0x08000888                RTC_WKUP_IRQHandler
                0x08000888                ETH_WKUP_IRQHandler
                0x08000888                SPI2_IRQHandler
                0x08000888                OTG_HS_EP1_IN_IRQHandler
                0x08000888                MemManage_Handler
                0x08000888                DMA1_Stream0_IRQHandler
                0x08000888                CAN1_TX_IRQHandler
                0x08000888                SVC_Handler
                0x08000888                FSMC_IRQHandler
                0x08000888                ETH_IRQHandler
                0x08000888                OTG_HS_EP1_OUT_IRQHandler
                0x08000888                WWDG_IRQHandler
                0x08000888                TIM2_IRQHandler
                0x08000888                OTG_FS_WKUP_IRQHandler
                0x08000888                TIM1_TRG_COM_TIM11_IRQHandler
                0x08000888                OTG_HS_IRQHandler
                0x08000888                USART2_IRQHandler
                0x08000888                I2C2_ER_IRQHandler
                0x08000888                DMA2_Stream1_IRQHandler
                0x08000888                CAN1_SCE_IRQHandler
                0x08000888                FLASH_IRQHandler
                0x08000888                DMA2_Stream4_IRQHandler
                0x08000888                BusFault_Handler
                0x08000888                OTG_FS_IRQHandler
                0x08000888                SPI3_IRQHandler
                0x08000888                DMA1_Stream4_IRQHandler
                0x08000888                I2C1_ER_IRQHandler
                0x08000888                DMA2_Stream6_IRQHandler
                0x08000888                DMA1_Stream3_IRQHandler
 *fill*         0x0800088a        0x2 00000000
 .text.rt_tick_get
                0x0800088c       0x18 build\kernel\src\clock.o
                0x0800088c                rt_tick_get
 .text.rt_tick_increase
                0x080008a4       0x58 build\kernel\src\clock.o
                0x080008a4                rt_tick_increase
 .text.rt_tick_from_millisecond
                0x080008fc       0x78 build\kernel\src\clock.o
                0x080008fc                rt_tick_from_millisecond
 .text.rti_start
                0x08000974       0x10 build\kernel\src\components.o
 .text.rti_board_start
                0x08000984       0x10 build\kernel\src\components.o
 .text.rti_board_end
                0x08000994       0x10 build\kernel\src\components.o
 .text.rti_end  0x080009a4       0x10 build\kernel\src\components.o
 .text.rt_components_board_init
                0x080009b4       0x30 build\kernel\src\components.o
                0x080009b4                rt_components_board_init
 .text.rt_components_init
                0x080009e4       0x30 build\kernel\src\components.o
                0x080009e4                rt_components_init
 .text.entry    0x08000a14       0x10 build\kernel\src\components.o
                0x08000a14                entry
 .text.main_thread_entry
                0x08000a24       0x18 build\kernel\src\components.o
                0x08000a24                main_thread_entry
 .text.rt_application_init
                0x08000a3c       0x4c build\kernel\src\components.o
                0x08000a3c                rt_application_init
 .text.rtthread_startup
                0x08000a88       0x30 build\kernel\src\components.o
                0x08000a88                rtthread_startup
 .text.rt_device_register
                0x08000ab8       0x54 build\kernel\src\device.o
                0x08000ab8                rt_device_register
 .text.rt_device_find
                0x08000b0c       0x90 build\kernel\src\device.o
                0x08000b0c                rt_device_find
 .text.rt_device_open
                0x08000b9c      0x11c build\kernel\src\device.o
                0x08000b9c                rt_device_open
 .text.rt_device_close
                0x08000cb8       0x9c build\kernel\src\device.o
                0x08000cb8                rt_device_close
 .text.rt_device_read
                0x08000d54       0x88 build\kernel\src\device.o
                0x08000d54                rt_device_read
 .text.rt_device_write
                0x08000ddc       0x88 build\kernel\src\device.o
                0x08000ddc                rt_device_write
 .text.rt_device_set_rx_indicate
                0x08000e64       0x54 build\kernel\src\device.o
                0x08000e64                rt_device_set_rx_indicate
 .text.rt_list_remove
                0x08000eb8       0x38 build\kernel\src\idle.o
 .text._has_defunct_thread
                0x08000ef0       0x2c build\kernel\src\idle.o
 .text.rt_thread_idle_excute
                0x08000f1c       0xc8 build\kernel\src\idle.o
                0x08000f1c                rt_thread_idle_excute
 .text.rt_thread_idle_entry
                0x08000fe4       0x3c build\kernel\src\idle.o
 .text.rt_thread_idle_init
                0x08001020       0x74 build\kernel\src\idle.o
                0x08001020                rt_thread_idle_init
 .text.rt_list_init
                0x08001094       0x24 build\kernel\src\ipc.o
 .text.rt_list_insert_before
                0x080010b8       0x34 build\kernel\src\ipc.o
 .text.rt_list_isempty
                0x080010ec       0x24 build\kernel\src\ipc.o
 .text.rt_ipc_object_init
                0x08001110       0x1c build\kernel\src\ipc.o
 .text.rt_ipc_list_suspend
                0x0800112c       0x90 build\kernel\src\ipc.o
 .text.rt_ipc_list_resume
                0x080011bc       0x20 build\kernel\src\ipc.o
 .text.rt_sem_init
                0x080011dc       0x68 build\kernel\src\ipc.o
                0x080011dc                rt_sem_init
 .text.rt_sem_take
                0x08001244      0x160 build\kernel\src\ipc.o
                0x08001244                rt_sem_take
 .text.rt_sem_release
                0x080013a4       0xa0 build\kernel\src\ipc.o
                0x080013a4                rt_sem_release
 .text.rt_interrupt_enter
                0x08001444       0x40 build\kernel\src\irq.o
                0x08001444                rt_interrupt_enter
 .text.rt_interrupt_leave
                0x08001484       0x40 build\kernel\src\irq.o
                0x08001484                rt_interrupt_leave
 .text.rt_interrupt_get_nest
                0x080014c4       0x28 build\kernel\src\irq.o
                0x080014c4                rt_interrupt_get_nest
 .text.rt_set_errno
                0x080014ec       0x40 build\kernel\src\kservice.o
                0x080014ec                rt_set_errno
 .text.rt_memset
                0x0800152c       0xb8 build\kernel\src\kservice.o
                0x0800152c                rt_memset
                0x0800152c                memset
 .text.rt_memcpy
                0x080015e4       0xd4 build\kernel\src\kservice.o
                0x080015e4                rt_memcpy
                0x080015e4                memcpy
 .text.rt_memmove
                0x080016b8       0x84 build\kernel\src\kservice.o
                0x080016b8                rt_memmove
                0x080016b8                memmove
 .text.rt_memcmp
                0x0800173c       0x58 build\kernel\src\kservice.o
                0x0800173c                rt_memcmp
                0x0800173c                memcmp
 .text.rt_strncpy
                0x08001794       0x64 build\kernel\src\kservice.o
                0x08001794                rt_strncpy
 .text.rt_strncmp
                0x080017f8       0x4c build\kernel\src\kservice.o
                0x080017f8                rt_strncmp
 .text.rt_strlen
                0x08001844       0x30 build\kernel\src\kservice.o
                0x08001844                strlen
                0x08001844                rt_strlen
 .text.rt_show_version
                0x08001874       0x44 build\kernel\src\kservice.o
                0x08001874                rt_show_version
 .text.divide   0x080018b8       0x68 build\kernel\src\kservice.o
 .text.skip_atoi
                0x08001920       0x40 build\kernel\src\kservice.o
 .text.print_number
                0x08001960      0x1dc build\kernel\src\kservice.o
 .text.rt_vsnprintf
                0x08001b3c      0x548 build\kernel\src\kservice.o
                0x08001b3c                rt_vsnprintf
 .text.rt_vsprintf
                0x08002084       0x24 build\kernel\src\kservice.o
                0x08002084                rt_vsprintf
                0x08002084                vsprintf
 .text.rt_sprintf
                0x080020a8       0x2c build\kernel\src\kservice.o
                0x080020a8                sprintf
                0x080020a8                rt_sprintf
 .text.rt_console_get_device
                0x080020d4       0x18 build\kernel\src\kservice.o
                0x080020d4                rt_console_get_device
 .text.rt_console_set_device
                0x080020ec       0x4c build\kernel\src\kservice.o
                0x080020ec                rt_console_set_device
 .text.rt_hw_console_output
                0x08002138       0x14 build\kernel\src\kservice.o
                0x08002138                rt_hw_console_output
 .text.rt_kprintf
                0x0800214c       0x80 build\kernel\src\kservice.o
                0x0800214c                rt_kprintf
 .text.rt_assert_handler
                0x080021cc       0x4c build\kernel\src\kservice.o
                0x080021cc                rt_assert_handler
 .text.plug_holes
                0x08002218      0x100 build\kernel\src\mem.o
 .text.rt_system_heap_init
                0x08002318      0x118 build\kernel\src\mem.o
                0x08002318                rt_system_heap_init
 .text.rt_malloc
                0x08002430      0x294 build\kernel\src\mem.o
                0x08002430                rt_malloc
 .text.rt_calloc
                0x080026c4       0x3c build\kernel\src\mem.o
                0x080026c4                rt_calloc
 .text.rt_free  0x08002700      0x188 build\kernel\src\mem.o
                0x08002700                rt_free
 .text.list_mem
                0x08002888       0x44 build\kernel\src\mem.o
                0x08002888                list_mem
 .text.rt_list_insert_after
                0x080028cc       0x34 build\kernel\src\object.o
 .text.rt_list_remove
                0x08002900       0x38 build\kernel\src\object.o
 .text.rt_object_get_information
                0x08002938       0x48 build\kernel\src\object.o
                0x08002938                rt_object_get_information
 .text.rt_object_init
                0x08002980       0xc8 build\kernel\src\object.o
                0x08002980                rt_object_init
 .text.rt_object_detach
                0x08002a48       0x5c build\kernel\src\object.o
                0x08002a48                rt_object_detach
 .text.rt_object_allocate
                0x08002aa4       0xd8 build\kernel\src\object.o
                0x08002aa4                rt_object_allocate
 .text.rt_object_delete
                0x08002b7c       0x7c build\kernel\src\object.o
                0x08002b7c                rt_object_delete
 .text.rt_object_is_systemobject
                0x08002bf8       0x3c build\kernel\src\object.o
                0x08002bf8                rt_object_is_systemobject
 .text.rt_object_get_type
                0x08002c34       0x34 build\kernel\src\object.o
                0x08002c34                rt_object_get_type
 .text.rt_list_init
                0x08002c68       0x24 build\kernel\src\scheduler.o
 .text.rt_list_insert_before
                0x08002c8c       0x34 build\kernel\src\scheduler.o
 .text.rt_list_remove
                0x08002cc0       0x38 build\kernel\src\scheduler.o
 .text.rt_list_isempty
                0x08002cf8       0x24 build\kernel\src\scheduler.o
 .text._rt_scheduler_stack_check
                0x08002d1c       0x98 build\kernel\src\scheduler.o
 .text._get_highest_priority_thread
                0x08002db4       0x38 build\kernel\src\scheduler.o
 .text.rt_system_scheduler_init
                0x08002dec       0x40 build\kernel\src\scheduler.o
                0x08002dec                rt_system_scheduler_init
 .text.rt_system_scheduler_start
                0x08002e2c       0x38 build\kernel\src\scheduler.o
                0x08002e2c                rt_system_scheduler_start
 .text.rt_schedule
                0x08002e64      0x188 build\kernel\src\scheduler.o
                0x08002e64                rt_schedule
 .text.rt_schedule_insert_thread
                0x08002fec       0xac build\kernel\src\scheduler.o
                0x08002fec                rt_schedule_insert_thread
 .text.rt_schedule_remove_thread
                0x08003098       0x70 build\kernel\src\scheduler.o
                0x08003098                rt_schedule_remove_thread
 .text.rt_enter_critical
                0x08003108       0x2c build\kernel\src\scheduler.o
                0x08003108                rt_enter_critical
 .text.rt_exit_critical
                0x08003134       0x54 build\kernel\src\scheduler.o
                0x08003134                rt_exit_critical
 .text.rt_list_init
                0x08003188       0x24 build\kernel\src\thread.o
 .text.rt_list_insert_after
                0x080031ac       0x34 build\kernel\src\thread.o
 .text.rt_list_remove
                0x080031e0       0x38 build\kernel\src\thread.o
 .text.rt_thread_exit
                0x08003218       0x68 build\kernel\src\thread.o
                0x08003218                rt_thread_exit
 .text._rt_thread_init
                0x08003280       0xf8 build\kernel\src\thread.o
 .text.rt_thread_init
                0x08003378       0x6c build\kernel\src\thread.o
                0x08003378                rt_thread_init
 .text.rt_thread_self
                0x080033e4       0x18 build\kernel\src\thread.o
                0x080033e4                rt_thread_self
 .text.rt_thread_startup
                0x080033fc       0xa0 build\kernel\src\thread.o
                0x080033fc                rt_thread_startup
 .text.rt_thread_create
                0x0800349c       0x64 build\kernel\src\thread.o
                0x0800349c                rt_thread_create
 .text.rt_thread_yield
                0x08003500       0x10 build\kernel\src\thread.o
                0x08003500                rt_thread_yield
 .text.rt_thread_sleep
                0x08003510       0x8c build\kernel\src\thread.o
                0x08003510                rt_thread_sleep
 .text.rt_thread_mdelay
                0x0800359c       0x20 build\kernel\src\thread.o
                0x0800359c                rt_thread_mdelay
 .text.rt_thread_suspend
                0x080035bc       0xcc build\kernel\src\thread.o
                0x080035bc                rt_thread_suspend
 .text.rt_thread_resume
                0x08003688       0x98 build\kernel\src\thread.o
                0x08003688                rt_thread_resume
 .text.rt_thread_timeout
                0x08003720       0x84 build\kernel\src\thread.o
                0x08003720                rt_thread_timeout
 .text.rt_list_init
                0x080037a4       0x24 build\kernel\src\timer.o
 .text.rt_list_insert_after
                0x080037c8       0x34 build\kernel\src\timer.o
 .text.rt_list_remove
                0x080037fc       0x38 build\kernel\src\timer.o
 .text.rt_list_isempty
                0x08003834       0x24 build\kernel\src\timer.o
 .text._rt_timer_init
                0x08003858       0x68 build\kernel\src\timer.o
 .text._rt_timer_remove
                0x080038c0       0x34 build\kernel\src\timer.o
 .text.rt_timer_init
                0x080038f4       0x48 build\kernel\src\timer.o
                0x080038f4                rt_timer_init
 .text.rt_timer_detach
                0x0800393c       0x7c build\kernel\src\timer.o
                0x0800393c                rt_timer_detach
 .text.rt_timer_start
                0x080039b8      0x1fc build\kernel\src\timer.o
                0x080039b8                rt_timer_start
 .text.rt_timer_stop
                0x08003bb4       0x94 build\kernel\src\timer.o
                0x08003bb4                rt_timer_stop
 .text.rt_timer_control
                0x08003c48       0xa0 build\kernel\src\timer.o
                0x08003c48                rt_timer_control
 .text.rt_timer_check
                0x08003ce8       0xcc build\kernel\src\timer.o
                0x08003ce8                rt_timer_check
 .text.rt_system_timer_init
                0x08003db4       0x34 build\kernel\src\timer.o
                0x08003db4                rt_system_timer_init
 .text.rt_system_timer_thread_init
                0x08003de8       0x10 build\kernel\src\timer.o
                0x08003de8                rt_system_timer_thread_init
 .text.rt_hw_stack_init
                0x08003df8       0x90 build\kernel\libcpu\arm\cortex-m4\cpuport.o
                0x08003df8                rt_hw_stack_init
 .text.usage_fault_track
                0x08003e88       0xc4 build\kernel\libcpu\arm\cortex-m4\cpuport.o
 .text.bus_fault_track
                0x08003f4c       0xcc build\kernel\libcpu\arm\cortex-m4\cpuport.o
 .text.mem_manage_fault_track
                0x08004018       0xb4 build\kernel\libcpu\arm\cortex-m4\cpuport.o
 .text.hard_fault_track
                0x080040cc       0x78 build\kernel\libcpu\arm\cortex-m4\cpuport.o
 .text.rt_hw_hard_fault_exception
                0x08004144      0x184 build\kernel\libcpu\arm\cortex-m4\cpuport.o
                0x08004144                rt_hw_hard_fault_exception
 .text.rt_hw_cpu_reset
                0x080042c8       0x1c build\kernel\libcpu\arm\cortex-m4\cpuport.o
                0x080042c8                rt_hw_cpu_reset
 .text.__rt_ffs
                0x080042e4       0x2c build\kernel\libcpu\arm\cortex-m4\cpuport.o
                0x080042e4                __rt_ffs
 .text._pin_read
                0x08004310       0x60 build\kernel\components\drivers\misc\pin.o
 .text._pin_write
                0x08004370       0x5c build\kernel\components\drivers\misc\pin.o
 .text._pin_control
                0x080043cc       0x58 build\kernel\components\drivers\misc\pin.o
 .text.rt_device_pin_register
                0x08004424       0x74 build\kernel\components\drivers\misc\pin.o
                0x08004424                rt_device_pin_register
 .text.rt_pin_mode
                0x08004498       0x40 build\kernel\components\drivers\misc\pin.o
                0x08004498                rt_pin_mode
 .text.rt_pin_write
                0x080044d8       0x40 build\kernel\components\drivers\misc\pin.o
                0x080044d8                rt_pin_write
 .text.rt_pin_read
                0x08004518       0x3c build\kernel\components\drivers\misc\pin.o
                0x08004518                rt_pin_read
 .text._serial_poll_rx
                0x08004554       0x74 build\kernel\components\drivers\serial\serial.o
 .text._serial_poll_tx
                0x080045c8       0x7c build\kernel\components\drivers\serial\serial.o
 .text._serial_int_rx
                0x08004644       0xd8 build\kernel\components\drivers\serial\serial.o
 .text._serial_int_tx
                0x0800471c       0x90 build\kernel\components\drivers\serial\serial.o
 .text._serial_check_buffer_size
                0x080047ac       0x38 build\kernel\components\drivers\serial\serial.o
 .text._serial_fifo_calc_recved_len
                0x080047e4       0x88 build\kernel\components\drivers\serial\serial.o
 .text.rt_dma_calc_recved_len
                0x0800486c       0x18 build\kernel\components\drivers\serial\serial.o
 .text.rt_dma_recv_update_get_index
                0x08004884       0xa4 build\kernel\components\drivers\serial\serial.o
 .text.rt_dma_recv_update_put_index
                0x08004928       0xf8 build\kernel\components\drivers\serial\serial.o
 .text._serial_dma_rx
                0x08004a20      0x198 build\kernel\components\drivers\serial\serial.o
 .text._serial_dma_tx
                0x08004bb8       0x70 build\kernel\components\drivers\serial\serial.o
 .text.rt_serial_init
                0x08004c28       0x5c build\kernel\components\drivers\serial\serial.o
 .text.rt_serial_open
                0x08004c84      0x36c build\kernel\components\drivers\serial\serial.o
 .text.rt_serial_close
                0x08004ff0      0x1a8 build\kernel\components\drivers\serial\serial.o
 .text.rt_serial_read
                0x08005198       0x84 build\kernel\components\drivers\serial\serial.o
 .text.rt_serial_write
                0x0800521c       0x84 build\kernel\components\drivers\serial\serial.o
 .text.rt_serial_control
                0x080052a0       0xd0 build\kernel\components\drivers\serial\serial.o
 .text.rt_hw_serial_register
                0x08005370       0x9c build\kernel\components\drivers\serial\serial.o
                0x08005370                rt_hw_serial_register
 .text.rt_hw_serial_isr
                0x0800540c      0x264 build\kernel\components\drivers\serial\serial.o
                0x0800540c                rt_hw_serial_isr
 .text.rt_list_init
                0x08005670       0x24 build\kernel\components\drivers\src\completion.o
 .text.rt_list_insert_before
                0x08005694       0x34 build\kernel\components\drivers\src\completion.o
 .text.rt_list_isempty
                0x080056c8       0x24 build\kernel\components\drivers\src\completion.o
 .text.rt_completion_init
                0x080056ec       0x44 build\kernel\components\drivers\src\completion.o
                0x080056ec                rt_completion_init
 .text.rt_completion_wait
                0x08005730       0xfc build\kernel\components\drivers\src\completion.o
                0x08005730                rt_completion_wait
 .text.rt_completion_done
                0x0800582c       0x70 build\kernel\components\drivers\src\completion.o
                0x0800582c                rt_completion_done
 .text.rt_list_init
                0x0800589c       0x24 build\kernel\components\drivers\src\dataqueue.o
 .text.rt_list_insert_before
                0x080058c0       0x34 build\kernel\components\drivers\src\dataqueue.o
 .text.rt_list_isempty
                0x080058f4       0x24 build\kernel\components\drivers\src\dataqueue.o
 .text.rt_data_queue_init
                0x08005918       0x84 build\kernel\components\drivers\src\dataqueue.o
                0x08005918                rt_data_queue_init
 .text.rt_data_queue_push
                0x0800599c      0x190 build\kernel\components\drivers\src\dataqueue.o
                0x0800599c                rt_data_queue_push
 .text.rt_data_queue_pop
                0x08005b2c      0x1e4 build\kernel\components\drivers\src\dataqueue.o
                0x08005b2c                rt_data_queue_pop
 .text.rt_data_queue_peak
                0x08005d10       0x9c build\kernel\components\drivers\src\dataqueue.o
                0x08005d10                rt_data_queue_peak
 .text.finsh_get_prompt
                0x08005dac       0xa0 build\kernel\components\finsh\shell.o
                0x08005dac                finsh_get_prompt
 .text.finsh_set_prompt_mode
                0x08005e4c       0x48 build\kernel\components\finsh\shell.o
                0x08005e4c                finsh_set_prompt_mode
 .text.finsh_getchar
                0x08005e94       0x5c build\kernel\components\finsh\shell.o
 .text.finsh_rx_ind
                0x08005ef0       0x3c build\kernel\components\finsh\shell.o
 .text.finsh_set_device
                0x08005f2c       0xd8 build\kernel\components\finsh\shell.o
                0x08005f2c                finsh_set_device
 .text.shell_auto_complete
                0x08006004       0x40 build\kernel\components\finsh\shell.o
 .text.shell_handle_history
                0x08006044       0x34 build\kernel\components\finsh\shell.o
 .text.shell_push_history
                0x08006078      0x160 build\kernel\components\finsh\shell.o
 .text.finsh_thread_entry
                0x080061d8      0x5d8 build\kernel\components\finsh\shell.o
                0x080061d8                finsh_thread_entry
 .text.finsh_system_function_init
                0x080067b0       0x2c build\kernel\components\finsh\shell.o
                0x080067b0                finsh_system_function_init
 .text.finsh_system_var_init
                0x080067dc       0x2c build\kernel\components\finsh\shell.o
                0x080067dc                finsh_system_var_init
 .text.finsh_system_init
                0x08006808       0xac build\kernel\components\finsh\shell.o
                0x08006808                finsh_system_init
 .text.rt_list_isempty
                0x080068b4       0x24 build\kernel\components\finsh\cmd.o
 .text.rt_list_len
                0x080068d8       0x38 build\kernel\components\finsh\cmd.o
 .text.hello    0x08006910       0x14 build\kernel\components\finsh\cmd.o
                0x08006910                hello
 .text.version  0x08006924       0x10 build\kernel\components\finsh\cmd.o
                0x08006924                version
 .text.object_split
                0x08006934       0x28 build\kernel\components\finsh\cmd.o
 .text.list_find_init
                0x0800695c       0x48 build\kernel\components\finsh\cmd.o
 .text.list_get_next
                0x080069a4       0xc8 build\kernel\components\finsh\cmd.o
 .text.list_thread
                0x08006a6c      0x208 build\kernel\components\finsh\cmd.o
                0x08006a6c                list_thread
 .text.show_wait_queue
                0x08006c74       0x50 build\kernel\components\finsh\cmd.o
 .text.list_sem
                0x08006cc4      0x12c build\kernel\components\finsh\cmd.o
                0x08006cc4                list_sem
 .text.list_event
                0x08006df0      0x118 build\kernel\components\finsh\cmd.o
                0x08006df0                list_event
 .text.list_mutex
                0x08006f08       0xe8 build\kernel\components\finsh\cmd.o
                0x08006f08                list_mutex
 .text.list_mailbox
                0x08006ff0      0x13c build\kernel\components\finsh\cmd.o
                0x08006ff0                list_mailbox
 .text.list_msgqueue
                0x0800712c      0x12c build\kernel\components\finsh\cmd.o
                0x0800712c                list_msgqueue
 .text.list_mempool
                0x08007258      0x144 build\kernel\components\finsh\cmd.o
                0x08007258                list_mempool
 .text.list_timer
                0x0800739c      0x108 build\kernel\components\finsh\cmd.o
                0x0800739c                list_timer
 .text.list_device
                0x080074a4       0xf0 build\kernel\components\finsh\cmd.o
                0x080074a4                list_device
 .text.list     0x08007594       0x6c build\kernel\components\finsh\cmd.o
                0x08007594                list
 .text.msh_is_used
                0x08007600       0x10 build\kernel\components\finsh\msh.o
                0x08007600                msh_is_used
 .text.msh_help
                0x08007610       0x7c build\kernel\components\finsh\msh.o
                0x08007610                msh_help
 .text.cmd_ps   0x0800768c       0x18 build\kernel\components\finsh\msh.o
                0x0800768c                cmd_ps
 .text.cmd_free
                0x080076a4       0x18 build\kernel\components\finsh\msh.o
                0x080076a4                cmd_free
 .text.msh_split
                0x080076bc      0x170 build\kernel\components\finsh\msh.o
 .text.msh_get_cmd
                0x0800782c       0x80 build\kernel\components\finsh\msh.o
 .text._msh_exec_cmd
                0x080078ac       0xd4 build\kernel\components\finsh\msh.o
 .text.msh_exec
                0x08007980       0x84 build\kernel\components\finsh\msh.o
                0x08007980                msh_exec
 .text.str_common
                0x08007a04       0x4c build\kernel\components\finsh\msh.o
 .text.msh_auto_complete
                0x08007a50       0xd0 build\kernel\components\finsh\msh.o
                0x08007a50                msh_auto_complete
 .text.malloc   0x08007b20       0x18 build\kernel\components\libc\compilers\minilibc\stdlib.o
                0x08007b20                malloc
 .text.strncpy  0x08007b38       0x20 build\kernel\components\libc\compilers\minilibc\string.o
                0x08007b38                strncpy
 .text.strncmp  0x08007b58       0x4c build\kernel\components\libc\compilers\minilibc\string.o
                0x08007b58                strncmp
 .text.SystemInit
                0x08007ba4       0x6c D:\IOT\rtthread-v4.0\rt-thread\bsp\stm32\libraries\STM32F4xx_HAL\CMSIS\Device\ST\STM32F4xx\Source\Templates\system_stm32f4xx.o
                0x08007ba4                SystemInit
 .text.HAL_Init
                0x08007c10       0x44 D:\IOT\rtthread-v4.0\rt-thread\bsp\stm32\libraries\STM32F4xx_HAL\STM32F4xx_HAL_Driver\Src\stm32f4xx_hal.o
                0x08007c10                HAL_Init
 .text.HAL_IncTick
                0x08007c54       0x28 D:\IOT\rtthread-v4.0\rt-thread\bsp\stm32\libraries\STM32F4xx_HAL\STM32F4xx_HAL_Driver\Src\stm32f4xx_hal.o
                0x08007c54                HAL_IncTick
 .text.__NVIC_SetPriorityGrouping
                0x08007c7c       0x48 D:\IOT\rtthread-v4.0\rt-thread\bsp\stm32\libraries\STM32F4xx_HAL\STM32F4xx_HAL_Driver\Src\stm32f4xx_hal_cortex.o
 .text.__NVIC_GetPriorityGrouping
                0x08007cc4       0x1c D:\IOT\rtthread-v4.0\rt-thread\bsp\stm32\libraries\STM32F4xx_HAL\STM32F4xx_HAL_Driver\Src\stm32f4xx_hal_cortex.o
 .text.__NVIC_EnableIRQ
                0x08007ce0       0x3c D:\IOT\rtthread-v4.0\rt-thread\bsp\stm32\libraries\STM32F4xx_HAL\STM32F4xx_HAL_Driver\Src\stm32f4xx_hal_cortex.o
 .text.__NVIC_DisableIRQ
                0x08007d1c       0x44 D:\IOT\rtthread-v4.0\rt-thread\bsp\stm32\libraries\STM32F4xx_HAL\STM32F4xx_HAL_Driver\Src\stm32f4xx_hal_cortex.o
 .text.__NVIC_SetPriority
                0x08007d60       0x54 D:\IOT\rtthread-v4.0\rt-thread\bsp\stm32\libraries\STM32F4xx_HAL\STM32F4xx_HAL_Driver\Src\stm32f4xx_hal_cortex.o
 .text.NVIC_EncodePriority
                0x08007db4       0x64 D:\IOT\rtthread-v4.0\rt-thread\bsp\stm32\libraries\STM32F4xx_HAL\STM32F4xx_HAL_Driver\Src\stm32f4xx_hal_cortex.o
 .text.SysTick_Config
                0x08007e18       0x44 D:\IOT\rtthread-v4.0\rt-thread\bsp\stm32\libraries\STM32F4xx_HAL\STM32F4xx_HAL_Driver\Src\stm32f4xx_hal_cortex.o
 .text.HAL_NVIC_SetPriorityGrouping
                0x08007e5c       0x18 D:\IOT\rtthread-v4.0\rt-thread\bsp\stm32\libraries\STM32F4xx_HAL\STM32F4xx_HAL_Driver\Src\stm32f4xx_hal_cortex.o
                0x08007e5c                HAL_NVIC_SetPriorityGrouping
 .text.HAL_NVIC_SetPriority
                0x08007e74       0x38 D:\IOT\rtthread-v4.0\rt-thread\bsp\stm32\libraries\STM32F4xx_HAL\STM32F4xx_HAL_Driver\Src\stm32f4xx_hal_cortex.o
                0x08007e74                HAL_NVIC_SetPriority
 .text.HAL_NVIC_EnableIRQ
                0x08007eac       0x1c D:\IOT\rtthread-v4.0\rt-thread\bsp\stm32\libraries\STM32F4xx_HAL\STM32F4xx_HAL_Driver\Src\stm32f4xx_hal_cortex.o
                0x08007eac                HAL_NVIC_EnableIRQ
 .text.HAL_NVIC_DisableIRQ
                0x08007ec8       0x1c D:\IOT\rtthread-v4.0\rt-thread\bsp\stm32\libraries\STM32F4xx_HAL\STM32F4xx_HAL_Driver\Src\stm32f4xx_hal_cortex.o
                0x08007ec8                HAL_NVIC_DisableIRQ
 .text.HAL_SYSTICK_Config
                0x08007ee4       0x18 D:\IOT\rtthread-v4.0\rt-thread\bsp\stm32\libraries\STM32F4xx_HAL\STM32F4xx_HAL_Driver\Src\stm32f4xx_hal_cortex.o
                0x08007ee4                HAL_SYSTICK_Config
 .text.HAL_SYSTICK_CLKSourceConfig
                0x08007efc       0x38 D:\IOT\rtthread-v4.0\rt-thread\bsp\stm32\libraries\STM32F4xx_HAL\STM32F4xx_HAL_Driver\Src\stm32f4xx_hal_cortex.o
                0x08007efc                HAL_SYSTICK_CLKSourceConfig
 .text.HAL_DMA_Init
                0x08007f34      0x15c D:\IOT\rtthread-v4.0\rt-thread\bsp\stm32\libraries\STM32F4xx_HAL\STM32F4xx_HAL_Driver\Src\stm32f4xx_hal_dma.o
                0x08007f34                HAL_DMA_Init
 .text.HAL_DMA_DeInit
                0x08008090       0xbc D:\IOT\rtthread-v4.0\rt-thread\bsp\stm32\libraries\STM32F4xx_HAL\STM32F4xx_HAL_Driver\Src\stm32f4xx_hal_dma.o
                0x08008090                HAL_DMA_DeInit
 .text.HAL_DMA_Start_IT
                0x0800814c       0xc0 D:\IOT\rtthread-v4.0\rt-thread\bsp\stm32\libraries\STM32F4xx_HAL\STM32F4xx_HAL_Driver\Src\stm32f4xx_hal_dma.o
                0x0800814c                HAL_DMA_Start_IT
 .text.HAL_DMA_Abort_IT
                0x0800820c       0x44 D:\IOT\rtthread-v4.0\rt-thread\bsp\stm32\libraries\STM32F4xx_HAL\STM32F4xx_HAL_Driver\Src\stm32f4xx_hal_dma.o
                0x0800820c                HAL_DMA_Abort_IT
 .text.DMA_SetConfig
                0x08008250       0x5c D:\IOT\rtthread-v4.0\rt-thread\bsp\stm32\libraries\STM32F4xx_HAL\STM32F4xx_HAL_Driver\Src\stm32f4xx_hal_dma.o
 .text.DMA_CalcBaseAndBitshift
                0x080082ac       0x6c D:\IOT\rtthread-v4.0\rt-thread\bsp\stm32\libraries\STM32F4xx_HAL\STM32F4xx_HAL_Driver\Src\stm32f4xx_hal_dma.o
 .text.DMA_CheckFifoParam
                0x08008318       0xf4 D:\IOT\rtthread-v4.0\rt-thread\bsp\stm32\libraries\STM32F4xx_HAL\STM32F4xx_HAL_Driver\Src\stm32f4xx_hal_dma.o
 .text.HAL_RCC_OscConfig
                0x0800840c      0x480 D:\IOT\rtthread-v4.0\rt-thread\bsp\stm32\libraries\STM32F4xx_HAL\STM32F4xx_HAL_Driver\Src\stm32f4xx_hal_rcc.o
                0x0800840c                HAL_RCC_OscConfig
 .text.HAL_RCC_ClockConfig
                0x0800888c      0x1c4 D:\IOT\rtthread-v4.0\rt-thread\bsp\stm32\libraries\STM32F4xx_HAL\STM32F4xx_HAL_Driver\Src\stm32f4xx_hal_rcc.o
                0x0800888c                HAL_RCC_ClockConfig
 .text.HAL_RCC_GetSysClockFreq
                0x08008a50      0x1ac D:\IOT\rtthread-v4.0\rt-thread\bsp\stm32\libraries\STM32F4xx_HAL\STM32F4xx_HAL_Driver\Src\stm32f4xx_hal_rcc.o
                0x08008a50                HAL_RCC_GetSysClockFreq
 .text.HAL_RCC_GetHCLKFreq
                0x08008bfc       0x18 D:\IOT\rtthread-v4.0\rt-thread\bsp\stm32\libraries\STM32F4xx_HAL\STM32F4xx_HAL_Driver\Src\stm32f4xx_hal_rcc.o
                0x08008bfc                HAL_RCC_GetHCLKFreq
 .text.HAL_RCC_GetPCLK1Freq
                0x08008c14       0x28 D:\IOT\rtthread-v4.0\rt-thread\bsp\stm32\libraries\STM32F4xx_HAL\STM32F4xx_HAL_Driver\Src\stm32f4xx_hal_rcc.o
                0x08008c14                HAL_RCC_GetPCLK1Freq
 .text.HAL_RCC_GetPCLK2Freq
                0x08008c3c       0x28 D:\IOT\rtthread-v4.0\rt-thread\bsp\stm32\libraries\STM32F4xx_HAL\STM32F4xx_HAL_Driver\Src\stm32f4xx_hal_rcc.o
                0x08008c3c                HAL_RCC_GetPCLK2Freq
 .text.HAL_GPIO_Init
                0x08008c64      0x334 D:\IOT\rtthread-v4.0\rt-thread\bsp\stm32\libraries\STM32F4xx_HAL\STM32F4xx_HAL_Driver\Src\stm32f4xx_hal_gpio.o
                0x08008c64                HAL_GPIO_Init
 .text.HAL_GPIO_DeInit
                0x08008f98      0x1f8 D:\IOT\rtthread-v4.0\rt-thread\bsp\stm32\libraries\STM32F4xx_HAL\STM32F4xx_HAL_Driver\Src\stm32f4xx_hal_gpio.o
                0x08008f98                HAL_GPIO_DeInit
 .text.HAL_GPIO_ReadPin
                0x08009190       0x30 D:\IOT\rtthread-v4.0\rt-thread\bsp\stm32\libraries\STM32F4xx_HAL\STM32F4xx_HAL_Driver\Src\stm32f4xx_hal_gpio.o
                0x08009190                HAL_GPIO_ReadPin
 .text.HAL_GPIO_WritePin
                0x080091c0       0x34 D:\IOT\rtthread-v4.0\rt-thread\bsp\stm32\libraries\STM32F4xx_HAL\STM32F4xx_HAL_Driver\Src\stm32f4xx_hal_gpio.o
                0x080091c0                HAL_GPIO_WritePin
 .text.HAL_GPIO_EXTI_IRQHandler
                0x080091f4       0x30 D:\IOT\rtthread-v4.0\rt-thread\bsp\stm32\libraries\STM32F4xx_HAL\STM32F4xx_HAL_Driver\Src\stm32f4xx_hal_gpio.o
                0x080091f4                HAL_GPIO_EXTI_IRQHandler
 .text.HAL_UART_Init
                0x08009224       0x9c D:\IOT\rtthread-v4.0\rt-thread\bsp\stm32\libraries\STM32F4xx_HAL\STM32F4xx_HAL_Driver\Src\stm32f4xx_hal_uart.o
                0x08009224                HAL_UART_Init
 .text.HAL_UART_Transmit_DMA
                0x080092c0       0xd8 D:\IOT\rtthread-v4.0\rt-thread\bsp\stm32\libraries\STM32F4xx_HAL\STM32F4xx_HAL_Driver\Src\stm32f4xx_hal_uart.o
                0x080092c0                HAL_UART_Transmit_DMA
 .text.HAL_UART_Receive_DMA
                0x08009398      0x100 D:\IOT\rtthread-v4.0\rt-thread\bsp\stm32\libraries\STM32F4xx_HAL\STM32F4xx_HAL_Driver\Src\stm32f4xx_hal_uart.o
                0x08009398                HAL_UART_Receive_DMA
 .text.HAL_UART_IRQHandler
                0x08009498      0x1f8 D:\IOT\rtthread-v4.0\rt-thread\bsp\stm32\libraries\STM32F4xx_HAL\STM32F4xx_HAL_Driver\Src\stm32f4xx_hal_uart.o
                0x08009498                HAL_UART_IRQHandler
 .text.HAL_UART_TxHalfCpltCallback
                0x08009690       0x14 D:\IOT\rtthread-v4.0\rt-thread\bsp\stm32\libraries\STM32F4xx_HAL\STM32F4xx_HAL_Driver\Src\stm32f4xx_hal_uart.o
                0x08009690                HAL_UART_TxHalfCpltCallback
 .text.UART_DMATransmitCplt
                0x080096a4       0x54 D:\IOT\rtthread-v4.0\rt-thread\bsp\stm32\libraries\STM32F4xx_HAL\STM32F4xx_HAL_Driver\Src\stm32f4xx_hal_uart.o
 .text.UART_DMATxHalfCplt
                0x080096f8       0x1c D:\IOT\rtthread-v4.0\rt-thread\bsp\stm32\libraries\STM32F4xx_HAL\STM32F4xx_HAL_Driver\Src\stm32f4xx_hal_uart.o
 .text.UART_DMAReceiveCplt
                0x08009714       0x68 D:\IOT\rtthread-v4.0\rt-thread\bsp\stm32\libraries\STM32F4xx_HAL\STM32F4xx_HAL_Driver\Src\stm32f4xx_hal_uart.o
 .text.UART_DMARxHalfCplt
                0x0800977c       0x1c D:\IOT\rtthread-v4.0\rt-thread\bsp\stm32\libraries\STM32F4xx_HAL\STM32F4xx_HAL_Driver\Src\stm32f4xx_hal_uart.o
 .text.UART_DMAError
                0x08009798       0x94 D:\IOT\rtthread-v4.0\rt-thread\bsp\stm32\libraries\STM32F4xx_HAL\STM32F4xx_HAL_Driver\Src\stm32f4xx_hal_uart.o
 .text.UART_EndTxTransfer
                0x0800982c       0x2c D:\IOT\rtthread-v4.0\rt-thread\bsp\stm32\libraries\STM32F4xx_HAL\STM32F4xx_HAL_Driver\Src\stm32f4xx_hal_uart.o
 .text.UART_EndRxTransfer
                0x08009858       0x3c D:\IOT\rtthread-v4.0\rt-thread\bsp\stm32\libraries\STM32F4xx_HAL\STM32F4xx_HAL_Driver\Src\stm32f4xx_hal_uart.o
 .text.UART_DMAAbortOnError
                0x08009894       0x28 D:\IOT\rtthread-v4.0\rt-thread\bsp\stm32\libraries\STM32F4xx_HAL\STM32F4xx_HAL_Driver\Src\stm32f4xx_hal_uart.o
 .text.UART_Transmit_IT
                0x080098bc       0xac D:\IOT\rtthread-v4.0\rt-thread\bsp\stm32\libraries\STM32F4xx_HAL\STM32F4xx_HAL_Driver\Src\stm32f4xx_hal_uart.o
 .text.UART_EndTransmit_IT
                0x08009968       0x30 D:\IOT\rtthread-v4.0\rt-thread\bsp\stm32\libraries\STM32F4xx_HAL\STM32F4xx_HAL_Driver\Src\stm32f4xx_hal_uart.o
 .text.UART_Receive_IT
                0x08009998      0x104 D:\IOT\rtthread-v4.0\rt-thread\bsp\stm32\libraries\STM32F4xx_HAL\STM32F4xx_HAL_Driver\Src\stm32f4xx_hal_uart.o
 .text.UART_SetConfig
                0x08009a9c      0x414 D:\IOT\rtthread-v4.0\rt-thread\bsp\stm32\libraries\STM32F4xx_HAL\STM32F4xx_HAL_Driver\Src\stm32f4xx_hal_uart.o
 .text.get_pin  0x08009eb0       0x48 D:\IOT\rtthread-v4.0\rt-thread\bsp\stm32\libraries\HAL_Drivers\drv_gpio.o
 .text.stm32_pin_write
                0x08009ef8       0x3c D:\IOT\rtthread-v4.0\rt-thread\bsp\stm32\libraries\HAL_Drivers\drv_gpio.o
 .text.stm32_pin_read
                0x08009f34       0x44 D:\IOT\rtthread-v4.0\rt-thread\bsp\stm32\libraries\HAL_Drivers\drv_gpio.o
 .text.stm32_pin_mode
                0x08009f78       0x98 D:\IOT\rtthread-v4.0\rt-thread\bsp\stm32\libraries\HAL_Drivers\drv_gpio.o
 .text.bit2bitno
                0x0800a010       0x40 D:\IOT\rtthread-v4.0\rt-thread\bsp\stm32\libraries\HAL_Drivers\drv_gpio.o
 .text.get_pin_irq_map
                0x0800a050       0x34 D:\IOT\rtthread-v4.0\rt-thread\bsp\stm32\libraries\HAL_Drivers\drv_gpio.o
 .text.stm32_pin_attach_irq
                0x0800a084      0x148 D:\IOT\rtthread-v4.0\rt-thread\bsp\stm32\libraries\HAL_Drivers\drv_gpio.o
 .text.stm32_pin_dettach_irq
                0x0800a1cc       0xd0 D:\IOT\rtthread-v4.0\rt-thread\bsp\stm32\libraries\HAL_Drivers\drv_gpio.o
 .text.stm32_pin_irq_enable
                0x0800a29c      0x1e0 D:\IOT\rtthread-v4.0\rt-thread\bsp\stm32\libraries\HAL_Drivers\drv_gpio.o
 .text.pin_irq_hdr
                0x0800a47c       0x54 D:\IOT\rtthread-v4.0\rt-thread\bsp\stm32\libraries\HAL_Drivers\drv_gpio.o
 .text.HAL_GPIO_EXTI_Callback
                0x0800a4d0       0x24 D:\IOT\rtthread-v4.0\rt-thread\bsp\stm32\libraries\HAL_Drivers\drv_gpio.o
                0x0800a4d0                HAL_GPIO_EXTI_Callback
 .text.EXTI0_IRQHandler
                0x0800a4f4       0x18 D:\IOT\rtthread-v4.0\rt-thread\bsp\stm32\libraries\HAL_Drivers\drv_gpio.o
                0x0800a4f4                EXTI0_IRQHandler
 .text.EXTI1_IRQHandler
                0x0800a50c       0x18 D:\IOT\rtthread-v4.0\rt-thread\bsp\stm32\libraries\HAL_Drivers\drv_gpio.o
                0x0800a50c                EXTI1_IRQHandler
 .text.EXTI2_IRQHandler
                0x0800a524       0x18 D:\IOT\rtthread-v4.0\rt-thread\bsp\stm32\libraries\HAL_Drivers\drv_gpio.o
                0x0800a524                EXTI2_IRQHandler
 .text.EXTI3_IRQHandler
                0x0800a53c       0x18 D:\IOT\rtthread-v4.0\rt-thread\bsp\stm32\libraries\HAL_Drivers\drv_gpio.o
                0x0800a53c                EXTI3_IRQHandler
 .text.EXTI4_IRQHandler
                0x0800a554       0x18 D:\IOT\rtthread-v4.0\rt-thread\bsp\stm32\libraries\HAL_Drivers\drv_gpio.o
                0x0800a554                EXTI4_IRQHandler
 .text.EXTI9_5_IRQHandler
                0x0800a56c       0x34 D:\IOT\rtthread-v4.0\rt-thread\bsp\stm32\libraries\HAL_Drivers\drv_gpio.o
                0x0800a56c                EXTI9_5_IRQHandler
 .text.EXTI15_10_IRQHandler
                0x0800a5a0       0x40 D:\IOT\rtthread-v4.0\rt-thread\bsp\stm32\libraries\HAL_Drivers\drv_gpio.o
                0x0800a5a0                EXTI15_10_IRQHandler
 .text.rt_hw_pin_init
                0x0800a5e0      0x124 D:\IOT\rtthread-v4.0\rt-thread\bsp\stm32\libraries\HAL_Drivers\drv_gpio.o
                0x0800a5e0                rt_hw_pin_init
 .text.__NVIC_EnableIRQ
                0x0800a704       0x3c D:\IOT\rtthread-v4.0\rt-thread\bsp\stm32\libraries\HAL_Drivers\drv_usart.o
 .text.__NVIC_DisableIRQ
                0x0800a740       0x44 D:\IOT\rtthread-v4.0\rt-thread\bsp\stm32\libraries\HAL_Drivers\drv_usart.o
 .text.stm32_configure
                0x0800a784      0x118 D:\IOT\rtthread-v4.0\rt-thread\bsp\stm32\libraries\HAL_Drivers\drv_usart.o
 .text.stm32_control
                0x0800a89c       0x94 D:\IOT\rtthread-v4.0\rt-thread\bsp\stm32\libraries\HAL_Drivers\drv_usart.o
 .text.stm32_putc
                0x0800a930       0x58 D:\IOT\rtthread-v4.0\rt-thread\bsp\stm32\libraries\HAL_Drivers\drv_usart.o
 .text.stm32_getc
                0x0800a988       0x50 D:\IOT\rtthread-v4.0\rt-thread\bsp\stm32\libraries\HAL_Drivers\drv_usart.o
 .text.stm32_dma_transmit
                0x0800a9d8       0x64 D:\IOT\rtthread-v4.0\rt-thread\bsp\stm32\libraries\HAL_Drivers\drv_usart.o
 .text.uart_isr
                0x0800aa3c      0x21c D:\IOT\rtthread-v4.0\rt-thread\bsp\stm32\libraries\HAL_Drivers\drv_usart.o
 .text.dma_isr  0x0800ac58       0xb8 D:\IOT\rtthread-v4.0\rt-thread\bsp\stm32\libraries\HAL_Drivers\drv_usart.o
 .text.USART1_IRQHandler
                0x0800ad10       0x1c D:\IOT\rtthread-v4.0\rt-thread\bsp\stm32\libraries\HAL_Drivers\drv_usart.o
                0x0800ad10                USART1_IRQHandler
 .text.stm32_dma_config
                0x0800ad2c      0x1e4 D:\IOT\rtthread-v4.0\rt-thread\bsp\stm32\libraries\HAL_Drivers\drv_usart.o
 .text.HAL_UART_ErrorCallback
                0x0800af10       0x30 D:\IOT\rtthread-v4.0\rt-thread\bsp\stm32\libraries\HAL_Drivers\drv_usart.o
                0x0800af10                HAL_UART_ErrorCallback
 .text.HAL_UART_RxCpltCallback
                0x0800af40       0x3c D:\IOT\rtthread-v4.0\rt-thread\bsp\stm32\libraries\HAL_Drivers\drv_usart.o
                0x0800af40                HAL_UART_RxCpltCallback
 .text.HAL_UART_RxHalfCpltCallback
                0x0800af7c       0x3c D:\IOT\rtthread-v4.0\rt-thread\bsp\stm32\libraries\HAL_Drivers\drv_usart.o
                0x0800af7c                HAL_UART_RxHalfCpltCallback
 .text.HAL_UART_TxCpltCallback
                0x0800afb8       0x3c D:\IOT\rtthread-v4.0\rt-thread\bsp\stm32\libraries\HAL_Drivers\drv_usart.o
                0x0800afb8                HAL_UART_TxCpltCallback
 .text.stm32_uart_get_dma_config
                0x0800aff4       0x1c D:\IOT\rtthread-v4.0\rt-thread\bsp\stm32\libraries\HAL_Drivers\drv_usart.o
 .text.rt_hw_usart_init
                0x0800b010      0x10c D:\IOT\rtthread-v4.0\rt-thread\bsp\stm32\libraries\HAL_Drivers\drv_usart.o
                0x0800b010                rt_hw_usart_init
 .text.reboot   0x0800b11c       0x18 D:\IOT\rtthread-v4.0\rt-thread\bsp\stm32\libraries\HAL_Drivers\drv_common.o
 .text.rt_hw_systick_init
                0x0800b134       0x34 D:\IOT\rtthread-v4.0\rt-thread\bsp\stm32\libraries\HAL_Drivers\drv_common.o
                0x0800b134                rt_hw_systick_init
 .text.SysTick_Handler
                0x0800b168       0x18 D:\IOT\rtthread-v4.0\rt-thread\bsp\stm32\libraries\HAL_Drivers\drv_common.o
                0x0800b168                SysTick_Handler
 .text.HAL_GetTick
                0x0800b180       0x24 D:\IOT\rtthread-v4.0\rt-thread\bsp\stm32\libraries\HAL_Drivers\drv_common.o
                0x0800b180                HAL_GetTick
 .text.HAL_InitTick
                0x0800b1a4       0x18 D:\IOT\rtthread-v4.0\rt-thread\bsp\stm32\libraries\HAL_Drivers\drv_common.o
                0x0800b1a4                HAL_InitTick
 .text._Error_Handler
                0x0800b1bc        0xc D:\IOT\rtthread-v4.0\rt-thread\bsp\stm32\libraries\HAL_Drivers\drv_common.o
                0x0800b1bc                _Error_Handler
 .text.rt_hw_board_init
                0x0800b1c8       0x54 D:\IOT\rtthread-v4.0\rt-thread\bsp\stm32\libraries\HAL_Drivers\drv_common.o
                0x0800b1c8                rt_hw_board_init
 .text.startup.register_fini
                0x0800b21c       0x14 c:/myprogram/rt_thread/env/tools/gnu_gcc/arm_gcc/mingw/bin/../lib/gcc/arm-none-eabi/5.4.1/../../../../arm-none-eabi/lib/armv7e-m/fpu\libc.a(lib_a-__call_atexit.o)
 .text.atexit   0x0800b230        0xc c:/myprogram/rt_thread/env/tools/gnu_gcc/arm_gcc/mingw/bin/../lib/gcc/arm-none-eabi/5.4.1/../../../../arm-none-eabi/lib/armv7e-m/fpu\libc.a(lib_a-atexit.o)
                0x0800b230                atexit
 .text.__libc_fini_array
                0x0800b23c       0x28 c:/myprogram/rt_thread/env/tools/gnu_gcc/arm_gcc/mingw/bin/../lib/gcc/arm-none-eabi/5.4.1/../../../../arm-none-eabi/lib/armv7e-m/fpu\libc.a(lib_a-fini.o)
                0x0800b23c                __libc_fini_array
 .text.__register_exitproc
                0x0800b264       0xa4 c:/myprogram/rt_thread/env/tools/gnu_gcc/arm_gcc/mingw/bin/../lib/gcc/arm-none-eabi/5.4.1/../../../../arm-none-eabi/lib/armv7e-m/fpu\libc.a(lib_a-__atexit.o)
                0x0800b264                __register_exitproc
 *(.rodata)
 .rodata        0x0800b308        0xe build\board\board.o
 *fill*         0x0800b316        0x2 00000000
 .rodata        0x0800b318       0x17 build\kernel\src\components.o
 *fill*         0x0800b32f        0x1 00000000
 .rodata        0x0800b330      0x10c build\kernel\src\device.o
 .rodata        0x0800b43c       0x34 build\kernel\src\idle.o
 .rodata        0x0800b470      0x476 build\kernel\src\ipc.o
 *fill*         0x0800b8e6        0x2 00000000
 .rodata        0x0800b8e8       0xc7 build\kernel\src\kservice.o
 *fill*         0x0800b9af        0x1 00000000
 .rodata        0x0800b9b0      0x2fa build\kernel\src\mem.o
 *fill*         0x0800bcaa        0x2 00000000
 .rodata        0x0800bcac       0x91 build\kernel\src\object.o
 *fill*         0x0800bd3d        0x3 00000000
 .rodata        0x0800bd40       0x65 build\kernel\src\scheduler.o
 *fill*         0x0800bda5        0x3 00000000
 .rodata        0x0800bda8      0x1b7 build\kernel\src\thread.o
 *fill*         0x0800bf5f        0x1 00000000
 .rodata        0x0800bf60       0xd7 build\kernel\src\timer.o
 *fill*         0x0800c037        0x1 00000000
 .rodata        0x0800c038      0x2ce build\kernel\libcpu\arm\cortex-m4\cpuport.o
 *fill*         0x0800c306        0x2 00000000
 .rodata        0x0800c308       0x27 build\kernel\components\drivers\misc\pin.o
 *fill*         0x0800c32f        0x1 00000000
 .rodata        0x0800c330      0x1a2 build\kernel\components\drivers\serial\serial.o
 *fill*         0x0800c4d2        0x2 00000000
 .rodata        0x0800c4d4       0x72 build\kernel\components\drivers\src\completion.o
 *fill*         0x0800c546        0x2 00000000
 .rodata        0x0800c548       0x64 build\kernel\components\drivers\src\dataqueue.o
 .rodata        0x0800c5ac       0x99 build\kernel\components\finsh\shell.o
 *fill*         0x0800c645        0x3 00000000
 .rodata        0x0800c648      0x631 build\kernel\components\finsh\cmd.o
 *fill*         0x0800cc79        0x3 00000000
 .rodata        0x0800cc7c       0x80 build\kernel\components\finsh\msh.o
 .rodata        0x0800ccfc        0x4 D:\IOT\rtthread-v4.0\rt-thread\bsp\stm32\libraries\HAL_Drivers\drv_gpio.o
 .rodata        0x0800cd00       0x5c D:\IOT\rtthread-v4.0\rt-thread\bsp\stm32\libraries\HAL_Drivers\drv_usart.o
 .rodata        0x0800cd5c        0x6 D:\IOT\rtthread-v4.0\rt-thread\bsp\stm32\libraries\HAL_Drivers\drv_common.o
 *(.rodata*)
 *fill*         0x0800cd62        0x2 00000000
 .rodata.__FUNCTION__.5306
                0x0800cd64       0x14 build\kernel\src\components.o
 .rodata.__FUNCTION__.5198
                0x0800cd78        0xf build\kernel\src\device.o
 *fill*         0x0800cd87        0x1 00000000
 .rodata.__FUNCTION__.5222
                0x0800cd88        0xf build\kernel\src\device.o
 *fill*         0x0800cd97        0x1 00000000
 .rodata.__FUNCTION__.5227
                0x0800cd98       0x10 build\kernel\src\device.o
 .rodata.__FUNCTION__.5234
                0x0800cda8        0xf build\kernel\src\device.o
 *fill*         0x0800cdb7        0x1 00000000
 .rodata.__FUNCTION__.5241
                0x0800cdb8       0x10 build\kernel\src\device.o
 .rodata.__FUNCTION__.5254
                0x0800cdc8       0x1a build\kernel\src\device.o
 *fill*         0x0800cde2        0x2 00000000
 .rodata.__FUNCTION__.5289
                0x0800cde4       0x16 build\kernel\src\idle.o
 *fill*         0x0800cdfa        0x2 00000000
 .rodata.__FUNCTION__.5294
                0x0800cdfc        0xc build\kernel\src\ipc.o
 .rodata.__FUNCTION__.5318
                0x0800ce08        0xc build\kernel\src\ipc.o
 .rodata.__FUNCTION__.5329
                0x0800ce14        0xf build\kernel\src\ipc.o
 *fill*         0x0800ce23        0x1 00000000
 .rodata.large_digits.5428
                0x0800ce24       0x11 build\kernel\src\kservice.o
 *fill*         0x0800ce35        0x3 00000000
 .rodata.small_digits.5427
                0x0800ce38       0x11 build\kernel\src\kservice.o
 *fill*         0x0800ce49        0x3 00000000
 .rodata.name   0x0800ce4c       0x2a build\kernel\src\mem.o
                0x0800ce4c                __fsym_list_mem_name
                0x0800ce58                __fsym_list_mem_desc
 *fill*         0x0800ce76        0x2 00000000
 .rodata.__FUNCTION__.5285
                0x0800ce78        0xb build\kernel\src\mem.o
 *fill*         0x0800ce83        0x1 00000000
 .rodata.__FUNCTION__.5294
                0x0800ce84       0x14 build\kernel\src\mem.o
 .rodata.__FUNCTION__.5303
                0x0800ce98        0xa build\kernel\src\mem.o
 *fill*         0x0800cea2        0x2 00000000
 .rodata.__FUNCTION__.5332
                0x0800cea4        0x8 build\kernel\src\mem.o
 .rodata.__FUNCTION__.5314
                0x0800ceac        0xf build\kernel\src\object.o
 *fill*         0x0800cebb        0x1 00000000
 .rodata.__FUNCTION__.5323
                0x0800cebc       0x11 build\kernel\src\object.o
 *fill*         0x0800cecd        0x3 00000000
 .rodata.__FUNCTION__.5332
                0x0800ced0       0x13 build\kernel\src\object.o
 *fill*         0x0800cee3        0x1 00000000
 .rodata.__FUNCTION__.5337
                0x0800cee4       0x11 build\kernel\src\object.o
 *fill*         0x0800cef5        0x3 00000000
 .rodata.__FUNCTION__.5341
                0x0800cef8       0x1a build\kernel\src\object.o
 *fill*         0x0800cf12        0x2 00000000
 .rodata.__FUNCTION__.5345
                0x0800cf14       0x13 build\kernel\src\object.o
 *fill*         0x0800cf27        0x1 00000000
 .rodata.__FUNCTION__.5272
                0x0800cf28       0x1a build\kernel\src\scheduler.o
 *fill*         0x0800cf42        0x2 00000000
 .rodata.__FUNCTION__.5313
                0x0800cf44       0x1a build\kernel\src\scheduler.o
 *fill*         0x0800cf5e        0x2 00000000
 .rodata.__FUNCTION__.5319
                0x0800cf60       0x1a build\kernel\src\scheduler.o
 *fill*         0x0800cf7a        0x2 00000000
 .rodata.__FUNCTION__.5289
                0x0800cf7c       0x10 build\kernel\src\thread.o
 .rodata.__FUNCTION__.5301
                0x0800cf8c        0xf build\kernel\src\thread.o
 *fill*         0x0800cf9b        0x1 00000000
 .rodata.__FUNCTION__.5310
                0x0800cf9c       0x12 build\kernel\src\thread.o
 *fill*         0x0800cfae        0x2 00000000
 .rodata.__FUNCTION__.5340
                0x0800cfb0       0x10 build\kernel\src\thread.o
 .rodata.__FUNCTION__.5372
                0x0800cfc0       0x12 build\kernel\src\thread.o
 *fill*         0x0800cfd2        0x2 00000000
 .rodata.__FUNCTION__.5377
                0x0800cfd4       0x11 build\kernel\src\thread.o
 *fill*         0x0800cfe5        0x3 00000000
 .rodata.__FUNCTION__.5382
                0x0800cfe8       0x12 build\kernel\src\thread.o
 *fill*         0x0800cffa        0x2 00000000
 .rodata.__FUNCTION__.5303
                0x0800cffc        0xe build\kernel\src\timer.o
 *fill*         0x0800d00a        0x2 00000000
 .rodata.__FUNCTION__.5308
                0x0800d00c       0x10 build\kernel\src\timer.o
 .rodata.__FUNCTION__.5332
                0x0800d01c        0xf build\kernel\src\timer.o
 *fill*         0x0800d02b        0x1 00000000
 .rodata.__FUNCTION__.5349
                0x0800d02c        0xe build\kernel\src\timer.o
 *fill*         0x0800d03a        0x2 00000000
 .rodata.__FUNCTION__.5355
                0x0800d03c       0x11 build\kernel\src\timer.o
 *fill*         0x0800d04d        0x3 00000000
 .rodata.name   0x0800d050       0x6e build\kernel\components\drivers\misc\pin.o
                0x0800d050                __fsym_pinMode_name
                0x0800d058                __fsym_pinMode_desc
                0x0800d070                __fsym_pinWrite_name
                0x0800d07c                __fsym_pinWrite_desc
                0x0800d098                __fsym_pinRead_name
                0x0800d0a0                __fsym_pinRead_desc
 *fill*         0x0800d0be        0x2 00000000
 .rodata.__FUNCTION__.5802
                0x0800d0c0        0xa build\kernel\components\drivers\misc\pin.o
 *fill*         0x0800d0ca        0x2 00000000
 .rodata.__FUNCTION__.5811
                0x0800d0cc        0xb build\kernel\components\drivers\misc\pin.o
 *fill*         0x0800d0d7        0x1 00000000
 .rodata.__FUNCTION__.5819
                0x0800d0d8        0xd build\kernel\components\drivers\misc\pin.o
 *fill*         0x0800d0e5        0x3 00000000
 .rodata.__FUNCTION__.5846
                0x0800d0e8        0xc build\kernel\components\drivers\misc\pin.o
 .rodata.__FUNCTION__.5854
                0x0800d0f4        0xd build\kernel\components\drivers\misc\pin.o
 *fill*         0x0800d101        0x3 00000000
 .rodata.__FUNCTION__.5861
                0x0800d104        0xc build\kernel\components\drivers\misc\pin.o
 .rodata.__FUNCTION__.5696
                0x0800d110       0x1d build\kernel\components\drivers\serial\serial.o
 *fill*         0x0800d12d        0x3 00000000
 .rodata.__FUNCTION__.5705
                0x0800d130       0x1d build\kernel\components\drivers\serial\serial.o
 *fill*         0x0800d14d        0x3 00000000
 .rodata.__FUNCTION__.5711
                0x0800d150       0x1d build\kernel\components\drivers\serial\serial.o
 *fill*         0x0800d16d        0x3 00000000
 .rodata.__FUNCTION__.5737
                0x0800d170        0xf build\kernel\components\drivers\serial\serial.o
 *fill*         0x0800d17f        0x1 00000000
 .rodata.__FUNCTION__.5744
                0x0800d180        0xf build\kernel\components\drivers\serial\serial.o
 *fill*         0x0800d18f        0x1 00000000
 .rodata.__FUNCTION__.5754
                0x0800d190       0x10 build\kernel\components\drivers\serial\serial.o
 .rodata.__FUNCTION__.5767
                0x0800d1a0        0xf build\kernel\components\drivers\serial\serial.o
 *fill*         0x0800d1af        0x1 00000000
 .rodata.__FUNCTION__.5671
                0x0800d1b0        0xf build\kernel\components\drivers\serial\serial.o
 *fill*         0x0800d1bf        0x1 00000000
 .rodata.__FUNCTION__.5718
                0x0800d1c0        0xf build\kernel\components\drivers\serial\serial.o
 *fill*         0x0800d1cf        0x1 00000000
 .rodata.__FUNCTION__.5650
                0x0800d1d0       0x10 build\kernel\components\drivers\serial\serial.o
 .rodata.__FUNCTION__.5775
                0x0800d1e0       0x10 build\kernel\components\drivers\serial\serial.o
 .rodata.__FUNCTION__.5684
                0x0800d1f0        0xf build\kernel\components\drivers\serial\serial.o
 *fill*         0x0800d1ff        0x1 00000000
 .rodata.__FUNCTION__.5660
                0x0800d200       0x10 build\kernel\components\drivers\serial\serial.o
 .rodata.__FUNCTION__.5783
                0x0800d210       0x12 build\kernel\components\drivers\serial\serial.o
 *fill*         0x0800d222        0x2 00000000
 .rodata.__FUNCTION__.5798
                0x0800d224       0x16 build\kernel\components\drivers\serial\serial.o
 *fill*         0x0800d23a        0x2 00000000
 .rodata.__FUNCTION__.5807
                0x0800d23c       0x11 build\kernel\components\drivers\serial\serial.o
 *fill*         0x0800d24d        0x3 00000000
 .rodata.__FUNCTION__.5647
                0x0800d250       0x13 build\kernel\components\drivers\src\completion.o
 *fill*         0x0800d263        0x1 00000000
 .rodata.__FUNCTION__.5655
                0x0800d264       0x13 build\kernel\components\drivers\src\completion.o
 *fill*         0x0800d277        0x1 00000000
 .rodata.__FUNCTION__.5662
                0x0800d278       0x13 build\kernel\components\drivers\src\completion.o
 *fill*         0x0800d28b        0x1 00000000
 .rodata.__FUNCTION__.5653
                0x0800d28c       0x13 build\kernel\components\drivers\src\dataqueue.o
 *fill*         0x0800d29f        0x1 00000000
 .rodata.__FUNCTION__.5663
                0x0800d2a0       0x13 build\kernel\components\drivers\src\dataqueue.o
 *fill*         0x0800d2b3        0x1 00000000
 .rodata.__FUNCTION__.5678
                0x0800d2b4       0x12 build\kernel\components\drivers\src\dataqueue.o
 *fill*         0x0800d2c6        0x2 00000000
 .rodata.__FUNCTION__.5690
                0x0800d2c8       0x13 build\kernel\components\drivers\src\dataqueue.o
 *fill*         0x0800d2db        0x1 00000000
 .rodata.__FUNCTION__.5545
                0x0800d2dc       0x16 build\kernel\components\finsh\shell.o
 *fill*         0x0800d2f2        0x2 00000000
 .rodata.__FUNCTION__.5550
                0x0800d2f4        0xe build\kernel\components\finsh\shell.o
 *fill*         0x0800d302        0x2 00000000
 .rodata.__FUNCTION__.5558
                0x0800d304        0xd build\kernel\components\finsh\shell.o
 *fill*         0x0800d311        0x3 00000000
 .rodata.__FUNCTION__.5563
                0x0800d314       0x11 build\kernel\components\finsh\shell.o
 *fill*         0x0800d325        0x3 00000000
 .rodata.name   0x0800d328      0x37a build\kernel\components\finsh\cmd.o
                0x0800d328                __fsym_hello_name
                0x0800d330                __fsym_hello_desc
                0x0800d340                __fsym_version_name
                0x0800d348                __fsym_version_desc
                0x0800d36c                __fsym___cmd_version_name
                0x0800d37c                __fsym___cmd_version_desc
                0x0800d3a0                __fsym_list_thread_name
                0x0800d3ac                __fsym_list_thread_desc
                0x0800d3b8                __fsym___cmd_list_thread_name
                0x0800d3cc                __fsym___cmd_list_thread_desc
                0x0800d3d8                __fsym_list_sem_name
                0x0800d3e4                __fsym_list_sem_desc
                0x0800d400                __fsym___cmd_list_sem_name
                0x0800d410                __fsym___cmd_list_sem_desc
                0x0800d42c                __fsym_list_event_name
                0x0800d438                __fsym_list_event_desc
                0x0800d450                __fsym___cmd_list_event_name
                0x0800d464                __fsym___cmd_list_event_desc
                0x0800d47c                __fsym_list_mutex_name
                0x0800d488                __fsym_list_mutex_desc
                0x0800d4a0                __fsym___cmd_list_mutex_name
                0x0800d4b4                __fsym___cmd_list_mutex_desc
                0x0800d4cc                __fsym_list_mailbox_name
                0x0800d4dc                __fsym_list_mailbox_desc
                0x0800d4f4                __fsym___cmd_list_mailbox_name
                0x0800d508                __fsym___cmd_list_mailbox_desc
                0x0800d520                __fsym_list_msgqueue_name
                0x0800d530                __fsym_list_msgqueue_desc
                0x0800d550                __fsym___cmd_list_msgqueue_name
                0x0800d564                __fsym___cmd_list_msgqueue_desc
                0x0800d584                __fsym_list_mempool_name
                0x0800d594                __fsym_list_mempool_desc
                0x0800d5b0                __fsym___cmd_list_mempool_name
                0x0800d5c4                __fsym___cmd_list_mempool_desc
                0x0800d5e0                __fsym_list_timer_name
                0x0800d5ec                __fsym_list_timer_desc
                0x0800d604                __fsym___cmd_list_timer_name
                0x0800d618                __fsym___cmd_list_timer_desc
                0x0800d630                __fsym_list_device_name
                0x0800d63c                __fsym_list_device_desc
                0x0800d654                __fsym___cmd_list_device_name
                0x0800d668                __fsym___cmd_list_device_desc
                0x0800d680                __fsym_list_name
                0x0800d688                __fsym_list_desc
 *fill*         0x0800d6a2        0x2 00000000
 .rodata.device_type_str
                0x0800d6a4       0x58 build\kernel\components\finsh\cmd.o
 .rodata.name   0x0800d6fc       0x7d build\kernel\components\finsh\msh.o
                0x0800d6fc                __fsym___cmd_help_name
                0x0800d708                __fsym___cmd_help_desc
                0x0800d720                __fsym___cmd_ps_name
                0x0800d72c                __fsym___cmd_ps_desc
                0x0800d748                __fsym___cmd_free_name
                0x0800d754                __fsym___cmd_free_desc
 *fill*         0x0800d779        0x3 00000000
 .rodata.__FUNCTION__.5539
                0x0800d77c        0xe build\kernel\components\finsh\msh.o
 *fill*         0x0800d78a        0x2 00000000
 .rodata.AHBPrescTable
                0x0800d78c       0x10 D:\IOT\rtthread-v4.0\rt-thread\bsp\stm32\libraries\STM32F4xx_HAL\CMSIS\Device\ST\STM32F4xx\Source\Templates\system_stm32f4xx.o
                0x0800d78c                AHBPrescTable
 .rodata.APBPrescTable
                0x0800d79c        0x8 D:\IOT\rtthread-v4.0\rt-thread\bsp\stm32\libraries\STM32F4xx_HAL\CMSIS\Device\ST\STM32F4xx\Source\Templates\system_stm32f4xx.o
                0x0800d79c                APBPrescTable
 .rodata.flagBitshiftOffset.7460
                0x0800d7a4        0x8 D:\IOT\rtthread-v4.0\rt-thread\bsp\stm32\libraries\STM32F4xx_HAL\STM32F4xx_HAL_Driver\Src\stm32f4xx_hal_dma.o
 .rodata.pins   0x0800d7ac      0x6c0 D:\IOT\rtthread-v4.0\rt-thread\bsp\stm32\libraries\HAL_Drivers\drv_gpio.o
 .rodata.pin_irq_map
                0x0800de6c       0x40 D:\IOT\rtthread-v4.0\rt-thread\bsp\stm32\libraries\HAL_Drivers\drv_gpio.o
 .rodata._stm32_pin_ops
                0x0800deac       0x18 D:\IOT\rtthread-v4.0\rt-thread\bsp\stm32\libraries\HAL_Drivers\drv_gpio.o
 .rodata.stm32_uart_ops
                0x0800dec4       0x14 D:\IOT\rtthread-v4.0\rt-thread\bsp\stm32\libraries\HAL_Drivers\drv_usart.o
 .rodata.__FUNCTION__.7855
                0x0800ded8       0x10 D:\IOT\rtthread-v4.0\rt-thread\bsp\stm32\libraries\HAL_Drivers\drv_usart.o
 .rodata.__FUNCTION__.7876
                0x0800dee8        0xe D:\IOT\rtthread-v4.0\rt-thread\bsp\stm32\libraries\HAL_Drivers\drv_usart.o
 *fill*         0x0800def6        0x2 00000000
 .rodata.__FUNCTION__.7886
                0x0800def8        0xb D:\IOT\rtthread-v4.0\rt-thread\bsp\stm32\libraries\HAL_Drivers\drv_usart.o
 *fill*         0x0800df03        0x1 00000000
 .rodata.__FUNCTION__.7895
                0x0800df04        0xb D:\IOT\rtthread-v4.0\rt-thread\bsp\stm32\libraries\HAL_Drivers\drv_usart.o
 *fill*         0x0800df0f        0x1 00000000
 .rodata.__FUNCTION__.7903
                0x0800df10       0x13 D:\IOT\rtthread-v4.0\rt-thread\bsp\stm32\libraries\HAL_Drivers\drv_usart.o
 *fill*         0x0800df23        0x1 00000000
 .rodata.__FUNCTION__.7912
                0x0800df24        0x9 D:\IOT\rtthread-v4.0\rt-thread\bsp\stm32\libraries\HAL_Drivers\drv_usart.o
 *fill*         0x0800df2d        0x3 00000000
 .rodata.__FUNCTION__.7925
                0x0800df30        0x8 D:\IOT\rtthread-v4.0\rt-thread\bsp\stm32\libraries\HAL_Drivers\drv_usart.o
 .rodata.__FUNCTION__.7937
                0x0800df38       0x11 D:\IOT\rtthread-v4.0\rt-thread\bsp\stm32\libraries\HAL_Drivers\drv_usart.o
 *fill*         0x0800df49        0x3 00000000
 .rodata.__FUNCTION__.7942
                0x0800df4c       0x17 D:\IOT\rtthread-v4.0\rt-thread\bsp\stm32\libraries\HAL_Drivers\drv_usart.o
 *fill*         0x0800df63        0x1 00000000
 .rodata.__FUNCTION__.7948
                0x0800df64       0x18 D:\IOT\rtthread-v4.0\rt-thread\bsp\stm32\libraries\HAL_Drivers\drv_usart.o
 .rodata.__FUNCTION__.7953
                0x0800df7c       0x1c D:\IOT\rtthread-v4.0\rt-thread\bsp\stm32\libraries\HAL_Drivers\drv_usart.o
 .rodata.__FUNCTION__.7958
                0x0800df98       0x18 D:\IOT\rtthread-v4.0\rt-thread\bsp\stm32\libraries\HAL_Drivers\drv_usart.o
 .rodata.__FUNCTION__.7969
                0x0800dfb0       0x11 D:\IOT\rtthread-v4.0\rt-thread\bsp\stm32\libraries\HAL_Drivers\drv_usart.o
 *fill*         0x0800dfc1        0x3 00000000
 .rodata.name   0x0800dfc4       0x1e D:\IOT\rtthread-v4.0\rt-thread\bsp\stm32\libraries\HAL_Drivers\drv_common.o
                0x0800dfc4                __fsym___cmd_reboot_name
                0x0800dfd4                __fsym___cmd_reboot_desc
 *fill*         0x0800dfe2        0x2 00000000
 .rodata._global_impure_ptr
                0x0800dfe4        0x4 c:/myprogram/rt_thread/env/tools/gnu_gcc/arm_gcc/mingw/bin/../lib/gcc/arm-none-eabi/5.4.1/../../../../arm-none-eabi/lib/armv7e-m/fpu\libc.a(lib_a-impure.o)
                0x0800dfe4                _global_impure_ptr
 *(.glue_7)
 .glue_7        0x0800dfe8        0x0 linker stubs
 *(.glue_7t)
 .glue_7t       0x0800dfe8        0x0 linker stubs
 *(.gnu.linkonce.t*)
                0x0800dfe8                . = ALIGN (0x4)
                0x0800dfe8                __fsymtab_start = .
 *(FSymTab)
 FSymTab        0x0800dfe8        0xc build\kernel\src\mem.o
                0x0800dfe8                __fsym_list_mem
 FSymTab        0x0800dff4       0x24 build\kernel\components\drivers\misc\pin.o
                0x0800dff4                __fsym_pinMode
                0x0800e000                __fsym_pinWrite
                0x0800e00c                __fsym_pinRead
 FSymTab        0x0800e018      0x108 build\kernel\components\finsh\cmd.o
                0x0800e018                __fsym_hello
                0x0800e024                __fsym_version
                0x0800e030                __fsym___cmd_version
                0x0800e03c                __fsym_list_thread
                0x0800e048                __fsym___cmd_list_thread
                0x0800e054                __fsym_list_sem
                0x0800e060                __fsym___cmd_list_sem
                0x0800e06c                __fsym_list_event
                0x0800e078                __fsym___cmd_list_event
                0x0800e084                __fsym_list_mutex
                0x0800e090                __fsym___cmd_list_mutex
                0x0800e09c                __fsym_list_mailbox
                0x0800e0a8                __fsym___cmd_list_mailbox
                0x0800e0b4                __fsym_list_msgqueue
                0x0800e0c0                __fsym___cmd_list_msgqueue
                0x0800e0cc                __fsym_list_mempool
                0x0800e0d8                __fsym___cmd_list_mempool
                0x0800e0e4                __fsym_list_timer
                0x0800e0f0                __fsym___cmd_list_timer
                0x0800e0fc                __fsym_list_device
                0x0800e108                __fsym___cmd_list_device
                0x0800e114                __fsym_list
 FSymTab        0x0800e120       0x24 build\kernel\components\finsh\msh.o
                0x0800e120                __fsym___cmd_help
                0x0800e12c                __fsym___cmd_ps
                0x0800e138                __fsym___cmd_free
 FSymTab        0x0800e144        0xc D:\IOT\rtthread-v4.0\rt-thread\bsp\stm32\libraries\HAL_Drivers\drv_common.o
                0x0800e144                __fsym___cmd_reboot
                0x0800e150                __fsymtab_end = .
                0x0800e150                . = ALIGN (0x4)
                0x0800e150                __vsymtab_start = .
 *(VSymTab)
                0x0800e150                __vsymtab_end = .
                0x0800e150                . = ALIGN (0x4)
                0x0800e150                __rt_init_start = .
 *(SORT(.rti_fn*))
 .rti_fn.0      0x0800e150        0x4 build\kernel\src\components.o
                0x0800e150                __rt_init_rti_start
 .rti_fn.0.end  0x0800e154        0x4 build\kernel\src\components.o
                0x0800e154                __rt_init_rti_board_start
 .rti_fn.1.end  0x0800e158        0x4 build\kernel\src\components.o
                0x0800e158                __rt_init_rti_board_end
 .rti_fn.6      0x0800e15c        0x4 build\kernel\components\finsh\shell.o
                0x0800e15c                __rt_init_finsh_system_init
 .rti_fn.6.end  0x0800e160        0x4 build\kernel\src\components.o
                0x0800e160                __rt_init_rti_end
                0x0800e164                __rt_init_end = .
                0x0800e164                . = ALIGN (0x4)
                [!provide]                PROVIDE (__ctors_start__, .)
 *(SORT(.init_array.*))
 .init_array.00000
                0x0800e164        0x4 c:/myprogram/rt_thread/env/tools/gnu_gcc/arm_gcc/mingw/bin/../lib/gcc/arm-none-eabi/5.4.1/../../../../arm-none-eabi/lib/armv7e-m/fpu\libc.a(lib_a-__call_atexit.o)
 *(.init_array)
 .init_array    0x0800e168        0x4 c:/myprogram/rt_thread/env/tools/gnu_gcc/arm_gcc/mingw/bin/../lib/gcc/arm-none-eabi/5.4.1/armv7e-m/fpu/crtbegin.o
                [!provide]                PROVIDE (__ctors_end__, .)
                0x0800e16c                . = ALIGN (0x4)
                0x0800e16c                _etext = .
                0x0800e16c                __exidx_start = .

.vfp11_veneer   0x0800e16c        0x0
 .vfp11_veneer  0x0800e16c        0x0 linker stubs

.v4_bx          0x0800e16c        0x0
 .v4_bx         0x0800e16c        0x0 linker stubs

.init           0x0800e16c        0x4
 .init          0x0800e16c        0x4 c:/myprogram/rt_thread/env/tools/gnu_gcc/arm_gcc/mingw/bin/../lib/gcc/arm-none-eabi/5.4.1/armv7e-m/fpu/crti.o
                0x0800e16c                _init

.fini           0x0800e170        0x4
 .fini          0x0800e170        0x4 c:/myprogram/rt_thread/env/tools/gnu_gcc/arm_gcc/mingw/bin/../lib/gcc/arm-none-eabi/5.4.1/armv7e-m/fpu/crti.o
                0x0800e170                _fini

.iplt           0x0800e174        0x0
 .iplt          0x0800e174        0x0 c:/myprogram/rt_thread/env/tools/gnu_gcc/arm_gcc/mingw/bin/../lib/gcc/arm-none-eabi/5.4.1/armv7e-m/fpu/crtbegin.o

.eh_frame       0x0800e174        0x0
 .eh_frame      0x0800e174        0x0 c:/myprogram/rt_thread/env/tools/gnu_gcc/arm_gcc/mingw/bin/../lib/gcc/arm-none-eabi/5.4.1/armv7e-m/fpu/crtbegin.o

.ARM.exidx      0x0800e174        0x8
 *(.ARM.exidx* .gnu.linkonce.armexidx.*)
 .ARM.exidx     0x0800e174        0x8 c:/myprogram/rt_thread/env/tools/gnu_gcc/arm_gcc/mingw/bin/../lib/gcc/arm-none-eabi/5.4.1/armv7e-m/fpu\libgcc.a(_udivmoddi4.o)
                0x0800e17c                _sidata = .
                0x0800e17c                __exidx_end = .

.rel.dyn        0x0800e17c        0x0
 .rel.iplt      0x0800e17c        0x0 c:/myprogram/rt_thread/env/tools/gnu_gcc/arm_gcc/mingw/bin/../lib/gcc/arm-none-eabi/5.4.1/armv7e-m/fpu/crtbegin.o

.data           0x20000000      0x598 load address 0x0800e17c
                0x20000000                . = ALIGN (0x4)
                0x20000000                _sdata = .
 *(.data)
 *(.data.*)
 .data.rt_object_container
                0x20000000       0x90 build\kernel\src\object.o
 .data.SystemCoreClock
                0x20000090        0x4 D:\IOT\rtthread-v4.0\rt-thread\bsp\stm32\libraries\STM32F4xx_HAL\CMSIS\Device\ST\STM32F4xx\Source\Templates\system_stm32f4xx.o
                0x20000090                SystemCoreClock
 .data.uwTickFreq
                0x20000094        0x1 D:\IOT\rtthread-v4.0\rt-thread\bsp\stm32\libraries\STM32F4xx_HAL\STM32F4xx_HAL_Driver\Src\stm32f4xx_hal.o
                0x20000094                uwTickFreq
 *fill*         0x20000095        0x3 
 .data.pin_irq_hdr_tab
                0x20000098       0xc0 D:\IOT\rtthread-v4.0\rt-thread\bsp\stm32\libraries\HAL_Drivers\drv_gpio.o
 .data.uart_config
                0x20000158       0x14 D:\IOT\rtthread-v4.0\rt-thread\bsp\stm32\libraries\HAL_Drivers\drv_usart.o
 *fill*         0x2000016c        0x4 
 .data.impure_data
                0x20000170      0x428 c:/myprogram/rt_thread/env/tools/gnu_gcc/arm_gcc/mingw/bin/../lib/gcc/arm-none-eabi/5.4.1/../../../../arm-none-eabi/lib/armv7e-m/fpu\libc.a(lib_a-impure.o)
 *(.gnu.linkonce.d*)
                0x20000598                . = ALIGN (0x4)
                0x20000598                _edata = .

.jcr            0x20000598        0x0 load address 0x0800e714
 .jcr           0x20000598        0x0 c:/myprogram/rt_thread/env/tools/gnu_gcc/arm_gcc/mingw/bin/../lib/gcc/arm-none-eabi/5.4.1/armv7e-m/fpu/crtbegin.o

.igot.plt       0x20000598        0x0 load address 0x0800e714
 .igot.plt      0x20000598        0x0 c:/myprogram/rt_thread/env/tools/gnu_gcc/arm_gcc/mingw/bin/../lib/gcc/arm-none-eabi/5.4.1/armv7e-m/fpu/crtbegin.o

.stack          0x20000598      0x200 load address 0x0800e714
                0x20000598                . = ALIGN (0x4)
                0x20000598                _sstack = .
                0x20000798                . = (. + _system_stack_size)
 *fill*         0x20000598      0x200 
                0x20000798                . = ALIGN (0x4)
                0x20000798                _estack = .
                0x20000798                __bss_start = .

.bss            0x20000798      0x634 load address 0x0800e914
                0x20000798                . = ALIGN (0x4)
                0x20000798                _sbss = .
 *(.bss)
 .bss           0x20000798       0x1c c:/myprogram/rt_thread/env/tools/gnu_gcc/arm_gcc/mingw/bin/../lib/gcc/arm-none-eabi/5.4.1/armv7e-m/fpu/crtbegin.o
 *(.bss.*)
 .bss.rt_tick   0x200007b4        0x4 build\kernel\src\clock.o
 .bss.idle      0x200007b8       0x80 build\kernel\src\idle.o
 .bss.rt_thread_stack
                0x20000838      0x100 build\kernel\src\idle.o
 .bss.idle_hook_list
                0x20000938       0x10 build\kernel\src\idle.o
 .bss.rt_interrupt_enter_hook
                0x20000948        0x4 build\kernel\src\irq.o
 .bss.rt_interrupt_leave_hook
                0x2000094c        0x4 build\kernel\src\irq.o
 .bss.rt_interrupt_nest
                0x20000950        0x1 build\kernel\src\irq.o
                0x20000950                rt_interrupt_nest
 *fill*         0x20000951        0x3 
 .bss.__rt_errno
                0x20000954        0x4 build\kernel\src\kservice.o
 .bss._console_device
                0x20000958        0x4 build\kernel\src\kservice.o
 .bss.rt_log_buf.5538
                0x2000095c       0x80 build\kernel\src\kservice.o
 .bss.rt_malloc_hook
                0x200009dc        0x4 build\kernel\src\mem.o
 .bss.rt_free_hook
                0x200009e0        0x4 build\kernel\src\mem.o
 .bss.heap_ptr  0x200009e4        0x4 build\kernel\src\mem.o
 .bss.heap_end  0x200009e8        0x4 build\kernel\src\mem.o
 .bss.lfree     0x200009ec        0x4 build\kernel\src\mem.o
 .bss.heap_sem  0x200009f0       0x20 build\kernel\src\mem.o
 .bss.mem_size_aligned
                0x20000a10        0x4 build\kernel\src\mem.o
 .bss.used_mem  0x20000a14        0x4 build\kernel\src\mem.o
 .bss.max_mem   0x20000a18        0x4 build\kernel\src\mem.o
 .bss.rt_object_attach_hook
                0x20000a1c        0x4 build\kernel\src\object.o
 .bss.rt_object_detach_hook
                0x20000a20        0x4 build\kernel\src\object.o
 .bss.rt_scheduler_lock_nest
                0x20000a24        0x2 build\kernel\src\scheduler.o
 *fill*         0x20000a26        0x2 
 .bss.rt_scheduler_hook
                0x20000a28        0x4 build\kernel\src\scheduler.o
 .bss.rt_thread_suspend_hook
                0x20000a2c        0x4 build\kernel\src\thread.o
 .bss.rt_thread_resume_hook
                0x20000a30        0x4 build\kernel\src\thread.o
 .bss.rt_thread_inited_hook
                0x20000a34        0x4 build\kernel\src\thread.o
 .bss.rt_timer_list
                0x20000a38        0x8 build\kernel\src\timer.o
 .bss.rt_timer_enter_hook
                0x20000a40        0x4 build\kernel\src\timer.o
 .bss.rt_timer_exit_hook
                0x20000a44        0x4 build\kernel\src\timer.o
 .bss.random_nr.5331
                0x20000a48        0x4 build\kernel\src\timer.o
 .bss.rt_exception_hook
                0x20000a4c        0x4 build\kernel\libcpu\arm\cortex-m4\cpuport.o
 .bss._hw_pin   0x20000a50       0x44 build\kernel\components\drivers\misc\pin.o
 .bss.already_output.5691
                0x20000a94        0x4 build\kernel\components\drivers\serial\serial.o
 .bss._syscall_table_begin
                0x20000a98        0x4 build\kernel\components\finsh\shell.o
                0x20000a98                _syscall_table_begin
 .bss._syscall_table_end
                0x20000a9c        0x4 build\kernel\components\finsh\shell.o
                0x20000a9c                _syscall_table_end
 .bss._sysvar_table_begin
                0x20000aa0        0x4 build\kernel\components\finsh\shell.o
                0x20000aa0                _sysvar_table_begin
 .bss._sysvar_table_end
                0x20000aa4        0x4 build\kernel\components\finsh\shell.o
                0x20000aa4                _sysvar_table_end
 .bss.finsh_prompt_custom
                0x20000aa8        0x4 build\kernel\components\finsh\shell.o
 .bss.finsh_prompt.5537
                0x20000aac       0x81 build\kernel\components\finsh\shell.o
 *fill*         0x20000b2d        0x3 
 .bss.pin_irq_enable_mask
                0x20000b30        0x4 D:\IOT\rtthread-v4.0\rt-thread\bsp\stm32\libraries\HAL_Drivers\drv_gpio.o
 .bss.uart_obj  0x20000b34      0x160 D:\IOT\rtthread-v4.0\rt-thread\bsp\stm32\libraries\HAL_Drivers\drv_usart.o
 *(COMMON)
 COMMON         0x20000c94        0x4 build\kernel\src\kservice.o
                0x20000c94                rt_assert_hook
 COMMON         0x20000c98        0xc build\kernel\src\object.o
                0x20000c98                rt_object_put_hook
                0x20000c9c                rt_object_take_hook
                0x20000ca0                rt_object_trytake_hook
 COMMON         0x20000ca4      0x114 build\kernel\src\scheduler.o
                0x20000ca4                rt_thread_priority_table
                0x20000da4                rt_current_priority
                0x20000da8                rt_current_thread
                0x20000dac                rt_thread_ready_priority_group
                0x20000db0                rt_thread_defunct
 COMMON         0x20000db8        0xc build\kernel\libcpu\arm\cortex-m4\cpuport.o
                0x20000db8                rt_interrupt_to_thread
                0x20000dbc                rt_interrupt_from_thread
                0x20000dc0                rt_thread_switch_interrupt_flag
 COMMON         0x20000dc4        0x4 build\kernel\components\finsh\shell.o
                0x20000dc4                shell
 COMMON         0x20000dc8        0x4 D:\IOT\rtthread-v4.0\rt-thread\bsp\stm32\libraries\STM32F4xx_HAL\STM32F4xx_HAL_Driver\Src\stm32f4xx_hal.o
                0x20000dc8                uwTick
                0x20000dcc                . = ALIGN (0x4)
                0x20000dcc                _ebss = .
 *(.bss.init)
                0x20000dcc                __bss_end = .
                0x20000dcc                _end = .

.stab
 *(.stab)

.stabstr
 *(.stabstr)

.stab.excl
 *(.stab.excl)

.stab.exclstr
 *(.stab.exclstr)

.stab.index
 *(.stab.index)

.stab.indexstr
 *(.stab.indexstr)

.comment        0x00000000       0x6e
 *(.comment)
 .comment       0x00000000       0x6e build\applications\main.o
                                 0x6f (size before relaxing)
 .comment       0x0000006e       0x6f build\board\board.o
 .comment       0x0000006e       0x6f build\board\CubeMX_Config\Src\stm32f4xx_hal_msp.o
 .comment       0x0000006e       0x6f build\kernel\src\clock.o
 .comment       0x0000006e       0x6f build\kernel\src\components.o
 .comment       0x0000006e       0x6f build\kernel\src\device.o
 .comment       0x0000006e       0x6f build\kernel\src\idle.o
 .comment       0x0000006e       0x6f build\kernel\src\ipc.o
 .comment       0x0000006e       0x6f build\kernel\src\irq.o
 .comment       0x0000006e       0x6f build\kernel\src\kservice.o
 .comment       0x0000006e       0x6f build\kernel\src\mem.o
 .comment       0x0000006e       0x6f build\kernel\src\object.o
 .comment       0x0000006e       0x6f build\kernel\src\scheduler.o
 .comment       0x0000006e       0x6f build\kernel\src\thread.o
 .comment       0x0000006e       0x6f build\kernel\src\timer.o
 .comment       0x0000006e       0x6f build\kernel\libcpu\arm\cortex-m4\cpuport.o
 .comment       0x0000006e       0x6f build\kernel\components\drivers\misc\pin.o
 .comment       0x0000006e       0x6f build\kernel\components\drivers\serial\serial.o
 .comment       0x0000006e       0x6f build\kernel\components\drivers\src\completion.o
 .comment       0x0000006e       0x6f build\kernel\components\drivers\src\dataqueue.o
 .comment       0x0000006e       0x6f build\kernel\components\finsh\shell.o
 .comment       0x0000006e       0x6f build\kernel\components\finsh\cmd.o
 .comment       0x0000006e       0x6f build\kernel\components\finsh\msh.o
 .comment       0x0000006e       0x6f build\kernel\components\libc\compilers\minilibc\stdlib.o
 .comment       0x0000006e       0x6f build\kernel\components\libc\compilers\minilibc\string.o
 .comment       0x0000006e       0x6f D:\IOT\rtthread-v4.0\rt-thread\bsp\stm32\libraries\STM32F4xx_HAL\CMSIS\Device\ST\STM32F4xx\Source\Templates\system_stm32f4xx.o
 .comment       0x0000006e       0x6f D:\IOT\rtthread-v4.0\rt-thread\bsp\stm32\libraries\STM32F4xx_HAL\STM32F4xx_HAL_Driver\Src\stm32f4xx_hal.o
 .comment       0x0000006e       0x6f D:\IOT\rtthread-v4.0\rt-thread\bsp\stm32\libraries\STM32F4xx_HAL\STM32F4xx_HAL_Driver\Src\stm32f4xx_hal_cortex.o
 .comment       0x0000006e       0x6f D:\IOT\rtthread-v4.0\rt-thread\bsp\stm32\libraries\STM32F4xx_HAL\STM32F4xx_HAL_Driver\Src\stm32f4xx_hal_dma.o
 .comment       0x0000006e       0x6f D:\IOT\rtthread-v4.0\rt-thread\bsp\stm32\libraries\STM32F4xx_HAL\STM32F4xx_HAL_Driver\Src\stm32f4xx_hal_rcc.o
 .comment       0x0000006e       0x6f D:\IOT\rtthread-v4.0\rt-thread\bsp\stm32\libraries\STM32F4xx_HAL\STM32F4xx_HAL_Driver\Src\stm32f4xx_hal_gpio.o
 .comment       0x0000006e       0x6f D:\IOT\rtthread-v4.0\rt-thread\bsp\stm32\libraries\STM32F4xx_HAL\STM32F4xx_HAL_Driver\Src\stm32f4xx_hal_uart.o
 .comment       0x0000006e       0x6f D:\IOT\rtthread-v4.0\rt-thread\bsp\stm32\libraries\HAL_Drivers\drv_gpio.o
 .comment       0x0000006e       0x6f D:\IOT\rtthread-v4.0\rt-thread\bsp\stm32\libraries\HAL_Drivers\drv_usart.o
 .comment       0x0000006e       0x6f D:\IOT\rtthread-v4.0\rt-thread\bsp\stm32\libraries\HAL_Drivers\drv_common.o

.ARM.attributes
                0x00000000       0x30
 .ARM.attributes
                0x00000000       0x22 c:/myprogram/rt_thread/env/tools/gnu_gcc/arm_gcc/mingw/bin/../lib/gcc/arm-none-eabi/5.4.1/armv7e-m/fpu/crti.o
 .ARM.attributes
                0x00000022       0x34 c:/myprogram/rt_thread/env/tools/gnu_gcc/arm_gcc/mingw/bin/../lib/gcc/arm-none-eabi/5.4.1/armv7e-m/fpu/crtbegin.o
 .ARM.attributes
                0x00000056       0x39 build\applications\main.o
 .ARM.attributes
                0x0000008f       0x39 build\board\board.o
 .ARM.attributes
                0x000000c8       0x39 build\board\CubeMX_Config\Src\stm32f4xx_hal_msp.o
 .ARM.attributes
                0x00000101       0x21 D:\IOT\rtthread-v4.0\rt-thread\bsp\stm32\libraries\STM32F4xx_HAL\CMSIS\Device\ST\STM32F4xx\Source\Templates\gcc\startup_stm32f407xx.o
 .ARM.attributes
                0x00000122       0x39 build\kernel\src\clock.o
 .ARM.attributes
                0x0000015b       0x39 build\kernel\src\components.o
 .ARM.attributes
                0x00000194       0x39 build\kernel\src\device.o
 .ARM.attributes
                0x000001cd       0x39 build\kernel\src\idle.o
 .ARM.attributes
                0x00000206       0x39 build\kernel\src\ipc.o
 .ARM.attributes
                0x0000023f       0x39 build\kernel\src\irq.o
 .ARM.attributes
                0x00000278       0x39 build\kernel\src\kservice.o
 .ARM.attributes
                0x000002b1       0x39 build\kernel\src\mem.o
 .ARM.attributes
                0x000002ea       0x39 build\kernel\src\object.o
 .ARM.attributes
                0x00000323       0x39 build\kernel\src\scheduler.o
 .ARM.attributes
                0x0000035c       0x39 build\kernel\src\thread.o
 .ARM.attributes
                0x00000395       0x39 build\kernel\src\timer.o
 .ARM.attributes
                0x000003ce       0x39 build\kernel\libcpu\arm\cortex-m4\cpuport.o
 .ARM.attributes
                0x00000407       0x25 build\kernel\libcpu\arm\cortex-m4\context_gcc.o
 .ARM.attributes
                0x0000042c       0x39 build\kernel\components\drivers\misc\pin.o
 .ARM.attributes
                0x00000465       0x39 build\kernel\components\drivers\serial\serial.o
 .ARM.attributes
                0x0000049e       0x39 build\kernel\components\drivers\src\completion.o
 .ARM.attributes
                0x000004d7       0x39 build\kernel\components\drivers\src\dataqueue.o
 .ARM.attributes
                0x00000510       0x39 build\kernel\components\finsh\shell.o
 .ARM.attributes
                0x00000549       0x39 build\kernel\components\finsh\cmd.o
 .ARM.attributes
                0x00000582       0x39 build\kernel\components\finsh\msh.o
 .ARM.attributes
                0x000005bb       0x39 build\kernel\components\libc\compilers\minilibc\stdlib.o
 .ARM.attributes
                0x000005f4       0x39 build\kernel\components\libc\compilers\minilibc\string.o
 .ARM.attributes
                0x0000062d       0x39 D:\IOT\rtthread-v4.0\rt-thread\bsp\stm32\libraries\STM32F4xx_HAL\CMSIS\Device\ST\STM32F4xx\Source\Templates\system_stm32f4xx.o
 .ARM.attributes
                0x00000666       0x39 D:\IOT\rtthread-v4.0\rt-thread\bsp\stm32\libraries\STM32F4xx_HAL\STM32F4xx_HAL_Driver\Src\stm32f4xx_hal.o
 .ARM.attributes
                0x0000069f       0x39 D:\IOT\rtthread-v4.0\rt-thread\bsp\stm32\libraries\STM32F4xx_HAL\STM32F4xx_HAL_Driver\Src\stm32f4xx_hal_cortex.o
 .ARM.attributes
                0x000006d8       0x39 D:\IOT\rtthread-v4.0\rt-thread\bsp\stm32\libraries\STM32F4xx_HAL\STM32F4xx_HAL_Driver\Src\stm32f4xx_hal_dma.o
 .ARM.attributes
                0x00000711       0x39 D:\IOT\rtthread-v4.0\rt-thread\bsp\stm32\libraries\STM32F4xx_HAL\STM32F4xx_HAL_Driver\Src\stm32f4xx_hal_rcc.o
 .ARM.attributes
                0x0000074a       0x39 D:\IOT\rtthread-v4.0\rt-thread\bsp\stm32\libraries\STM32F4xx_HAL\STM32F4xx_HAL_Driver\Src\stm32f4xx_hal_gpio.o
 .ARM.attributes
                0x00000783       0x39 D:\IOT\rtthread-v4.0\rt-thread\bsp\stm32\libraries\STM32F4xx_HAL\STM32F4xx_HAL_Driver\Src\stm32f4xx_hal_uart.o
 .ARM.attributes
                0x000007bc       0x39 D:\IOT\rtthread-v4.0\rt-thread\bsp\stm32\libraries\HAL_Drivers\drv_gpio.o
 .ARM.attributes
                0x000007f5       0x39 D:\IOT\rtthread-v4.0\rt-thread\bsp\stm32\libraries\HAL_Drivers\drv_usart.o
 .ARM.attributes
                0x0000082e       0x39 D:\IOT\rtthread-v4.0\rt-thread\bsp\stm32\libraries\HAL_Drivers\drv_common.o
 .ARM.attributes
                0x00000867       0x22 c:/myprogram/rt_thread/env/tools/gnu_gcc/arm_gcc/mingw/bin/../lib/gcc/arm-none-eabi/5.4.1/armv7e-m/fpu\libgcc.a(_aeabi_uldivmod.o)
 .ARM.attributes
                0x00000889       0x34 c:/myprogram/rt_thread/env/tools/gnu_gcc/arm_gcc/mingw/bin/../lib/gcc/arm-none-eabi/5.4.1/armv7e-m/fpu\libgcc.a(_udivmoddi4.o)
 .ARM.attributes
                0x000008bd       0x22 c:/myprogram/rt_thread/env/tools/gnu_gcc/arm_gcc/mingw/bin/../lib/gcc/arm-none-eabi/5.4.1/armv7e-m/fpu\libgcc.a(_dvmd_tls.o)
 .ARM.attributes
                0x000008df       0x34 c:/myprogram/rt_thread/env/tools/gnu_gcc/arm_gcc/mingw/bin/../lib/gcc/arm-none-eabi/5.4.1/../../../../arm-none-eabi/lib/armv7e-m/fpu\libc.a(lib_a-impure.o)
 .ARM.attributes
                0x00000913       0x34 c:/myprogram/rt_thread/env/tools/gnu_gcc/arm_gcc/mingw/bin/../lib/gcc/arm-none-eabi/5.4.1/../../../../arm-none-eabi/lib/armv7e-m/fpu\libc.a(lib_a-__call_atexit.o)
 .ARM.attributes
                0x00000947       0x34 c:/myprogram/rt_thread/env/tools/gnu_gcc/arm_gcc/mingw/bin/../lib/gcc/arm-none-eabi/5.4.1/../../../../arm-none-eabi/lib/armv7e-m/fpu\libc.a(lib_a-atexit.o)
 .ARM.attributes
                0x0000097b       0x34 c:/myprogram/rt_thread/env/tools/gnu_gcc/arm_gcc/mingw/bin/../lib/gcc/arm-none-eabi/5.4.1/../../../../arm-none-eabi/lib/armv7e-m/fpu\libc.a(lib_a-fini.o)
 .ARM.attributes
                0x000009af       0x34 c:/myprogram/rt_thread/env/tools/gnu_gcc/arm_gcc/mingw/bin/../lib/gcc/arm-none-eabi/5.4.1/../../../../arm-none-eabi/lib/armv7e-m/fpu\libc.a(lib_a-__atexit.o)

.debug
 *(.debug)

.line
 *(.line)

.debug_srcinfo
 *(.debug_srcinfo)

.debug_sfnames
 *(.debug_sfnames)

.debug_aranges  0x00000000     0x1488
 *(.debug_aranges)
 .debug_aranges
                0x00000000       0x20 build\applications\main.o
 .debug_aranges
                0x00000020       0x20 build\board\board.o
 .debug_aranges
                0x00000040       0x40 build\board\CubeMX_Config\Src\stm32f4xx_hal_msp.o
 .debug_aranges
                0x00000080       0x28 D:\IOT\rtthread-v4.0\rt-thread\bsp\stm32\libraries\STM32F4xx_HAL\CMSIS\Device\ST\STM32F4xx\Source\Templates\gcc\startup_stm32f407xx.o
 .debug_aranges
                0x000000a8       0x40 build\kernel\src\clock.o
 .debug_aranges
                0x000000e8       0x68 build\kernel\src\components.o
 .debug_aranges
                0x00000150       0x88 build\kernel\src\device.o
 .debug_aranges
                0x000001d8       0x58 build\kernel\src\idle.o
 .debug_aranges
                0x00000230      0x188 build\kernel\src\ipc.o
 .debug_aranges
                0x000003b8       0x40 build\kernel\src\irq.o
 .debug_aranges
                0x000003f8      0x118 build\kernel\src\kservice.o
 .debug_aranges
                0x00000510       0x68 build\kernel\src\mem.o
 .debug_aranges
                0x00000578       0x98 build\kernel\src\object.o
 .debug_aranges
                0x00000610       0x90 build\kernel\src\scheduler.o
 .debug_aranges
                0x000006a0       0xd8 build\kernel\src\thread.o
 .debug_aranges
                0x00000778       0xb8 build\kernel\src\timer.o
 .debug_aranges
                0x00000830       0x68 build\kernel\libcpu\arm\cortex-m4\cpuport.o
 .debug_aranges
                0x00000898       0x20 build\kernel\libcpu\arm\cortex-m4\context_gcc.o
 .debug_aranges
                0x000008b8       0x68 build\kernel\components\drivers\misc\pin.o
 .debug_aranges
                0x00000920       0xb0 build\kernel\components\drivers\serial\serial.o
 .debug_aranges
                0x000009d0       0x48 build\kernel\components\drivers\src\completion.o
 .debug_aranges
                0x00000a18       0x58 build\kernel\components\drivers\src\dataqueue.o
 .debug_aranges
                0x00000a70       0xa0 build\kernel\components\finsh\shell.o
 .debug_aranges
                0x00000b10       0xa8 build\kernel\components\finsh\cmd.o
 .debug_aranges
                0x00000bb8       0x68 build\kernel\components\finsh\msh.o
 .debug_aranges
                0x00000c20       0x48 build\kernel\components\libc\compilers\minilibc\stdlib.o
 .debug_aranges
                0x00000c68       0xf0 build\kernel\components\libc\compilers\minilibc\string.o
 .debug_aranges
                0x00000d58       0x28 D:\IOT\rtthread-v4.0\rt-thread\bsp\stm32\libraries\STM32F4xx_HAL\CMSIS\Device\ST\STM32F4xx\Source\Templates\system_stm32f4xx.o
 .debug_aranges
                0x00000d80       0xf0 D:\IOT\rtthread-v4.0\rt-thread\bsp\stm32\libraries\STM32F4xx_HAL\STM32F4xx_HAL_Driver\Src\stm32f4xx_hal.o
 .debug_aranges
                0x00000e70      0x118 D:\IOT\rtthread-v4.0\rt-thread\bsp\stm32\libraries\STM32F4xx_HAL\STM32F4xx_HAL_Driver\Src\stm32f4xx_hal_cortex.o
 .debug_aranges
                0x00000f88       0x90 D:\IOT\rtthread-v4.0\rt-thread\bsp\stm32\libraries\STM32F4xx_HAL\STM32F4xx_HAL_Driver\Src\stm32f4xx_hal_dma.o
 .debug_aranges
                0x00001018       0x88 D:\IOT\rtthread-v4.0\rt-thread\bsp\stm32\libraries\STM32F4xx_HAL\STM32F4xx_HAL_Driver\Src\stm32f4xx_hal_rcc.o
 .debug_aranges
                0x000010a0       0x58 D:\IOT\rtthread-v4.0\rt-thread\bsp\stm32\libraries\STM32F4xx_HAL\STM32F4xx_HAL_Driver\Src\stm32f4xx_hal_gpio.o
 .debug_aranges
                0x000010f8      0x1d0 D:\IOT\rtthread-v4.0\rt-thread\bsp\stm32\libraries\STM32F4xx_HAL\STM32F4xx_HAL_Driver\Src\stm32f4xx_hal_uart.o
 .debug_aranges
                0x000012c8       0xb0 D:\IOT\rtthread-v4.0\rt-thread\bsp\stm32\libraries\HAL_Drivers\drv_gpio.o
 .debug_aranges
                0x00001378       0xa0 D:\IOT\rtthread-v4.0\rt-thread\bsp\stm32\libraries\HAL_Drivers\drv_usart.o
 .debug_aranges
                0x00001418       0x70 D:\IOT\rtthread-v4.0\rt-thread\bsp\stm32\libraries\HAL_Drivers\drv_common.o

.debug_pubnames
 *(.debug_pubnames)

.debug_info     0x00000000    0x16f1d
 *(.debug_info .gnu.linkonce.wi.*)
 .debug_info    0x00000000       0xd4 build\applications\main.o
 .debug_info    0x000000d4      0x49e build\board\board.o
 .debug_info    0x00000572      0xc97 build\board\CubeMX_Config\Src\stm32f4xx_hal_msp.o
 .debug_info    0x00001209       0xea D:\IOT\rtthread-v4.0\rt-thread\bsp\stm32\libraries\STM32F4xx_HAL\CMSIS\Device\ST\STM32F4xx\Source\Templates\gcc\startup_stm32f407xx.o
 .debug_info    0x000012f3      0x439 build\kernel\src\clock.o
 .debug_info    0x0000172c      0x550 build\kernel\src\components.o
 .debug_info    0x00001c7c      0x96d build\kernel\src\device.o
 .debug_info    0x000025e9      0x630 build\kernel\src\idle.o
 .debug_info    0x00002c19     0x1b93 build\kernel\src\ipc.o
 .debug_info    0x000047ac      0x1b4 build\kernel\src\irq.o
 .debug_info    0x00004960     0x1248 build\kernel\src\kservice.o
 .debug_info    0x00005ba8      0x786 build\kernel\src\mem.o
 .debug_info    0x0000632e      0x796 build\kernel\src\object.o
 .debug_info    0x00006ac4      0x7e8 build\kernel\src\scheduler.o
 .debug_info    0x000072ac      0xc5b build\kernel\src\thread.o
 .debug_info    0x00007f07      0x8c1 build\kernel\src\timer.o
 .debug_info    0x000087c8      0x44e build\kernel\libcpu\arm\cortex-m4\cpuport.o
 .debug_info    0x00008c16       0xaa build\kernel\libcpu\arm\cortex-m4\context_gcc.o
 .debug_info    0x00008cc0      0xb08 build\kernel\components\drivers\misc\pin.o
 .debug_info    0x000097c8     0x123b build\kernel\components\drivers\serial\serial.o
 .debug_info    0x0000aa03      0x58e build\kernel\components\drivers\src\completion.o
 .debug_info    0x0000af91      0x7bb build\kernel\components\drivers\src\dataqueue.o
 .debug_info    0x0000b74c      0xdcf build\kernel\components\finsh\shell.o
 .debug_info    0x0000c51b     0x1ab2 build\kernel\components\finsh\cmd.o
 .debug_info    0x0000dfcd      0x634 build\kernel\components\finsh\msh.o
 .debug_info    0x0000e601      0x1e8 build\kernel\components\libc\compilers\minilibc\stdlib.o
 .debug_info    0x0000e7e9      0xb29 build\kernel\components\libc\compilers\minilibc\string.o
 .debug_info    0x0000f312      0x54b D:\IOT\rtthread-v4.0\rt-thread\bsp\stm32\libraries\STM32F4xx_HAL\CMSIS\Device\ST\STM32F4xx\Source\Templates\system_stm32f4xx.o
 .debug_info    0x0000f85d      0x99d D:\IOT\rtthread-v4.0\rt-thread\bsp\stm32\libraries\STM32F4xx_HAL\STM32F4xx_HAL_Driver\Src\stm32f4xx_hal.o
 .debug_info    0x000101fa      0xe91 D:\IOT\rtthread-v4.0\rt-thread\bsp\stm32\libraries\STM32F4xx_HAL\STM32F4xx_HAL_Driver\Src\stm32f4xx_hal_cortex.o
 .debug_info    0x0001108b      0x963 D:\IOT\rtthread-v4.0\rt-thread\bsp\stm32\libraries\STM32F4xx_HAL\STM32F4xx_HAL_Driver\Src\stm32f4xx_hal_dma.o
 .debug_info    0x000119ee      0x94f D:\IOT\rtthread-v4.0\rt-thread\bsp\stm32\libraries\STM32F4xx_HAL\STM32F4xx_HAL_Driver\Src\stm32f4xx_hal_rcc.o
 .debug_info    0x0001233d      0x785 D:\IOT\rtthread-v4.0\rt-thread\bsp\stm32\libraries\STM32F4xx_HAL\STM32F4xx_HAL_Driver\Src\stm32f4xx_hal_gpio.o
 .debug_info    0x00012ac2     0x12dc D:\IOT\rtthread-v4.0\rt-thread\bsp\stm32\libraries\STM32F4xx_HAL\STM32F4xx_HAL_Driver\Src\stm32f4xx_hal_uart.o
 .debug_info    0x00013d9e     0x1163 D:\IOT\rtthread-v4.0\rt-thread\bsp\stm32\libraries\HAL_Drivers\drv_gpio.o
 .debug_info    0x00014f01     0x19c2 D:\IOT\rtthread-v4.0\rt-thread\bsp\stm32\libraries\HAL_Drivers\drv_usart.o
 .debug_info    0x000168c3      0x65a D:\IOT\rtthread-v4.0\rt-thread\bsp\stm32\libraries\HAL_Drivers\drv_common.o

.debug_abbrev   0x00000000     0x41e7
 *(.debug_abbrev)
 .debug_abbrev  0x00000000       0x7c build\applications\main.o
 .debug_abbrev  0x0000007c      0x11b build\board\board.o
 .debug_abbrev  0x00000197      0x159 build\board\CubeMX_Config\Src\stm32f4xx_hal_msp.o
 .debug_abbrev  0x000002f0       0x12 D:\IOT\rtthread-v4.0\rt-thread\bsp\stm32\libraries\STM32F4xx_HAL\CMSIS\Device\ST\STM32F4xx\Source\Templates\gcc\startup_stm32f407xx.o
 .debug_abbrev  0x00000302      0x13a build\kernel\src\clock.o
 .debug_abbrev  0x0000043c      0x166 build\kernel\src\components.o
 .debug_abbrev  0x000005a2      0x191 build\kernel\src\device.o
 .debug_abbrev  0x00000733      0x1f1 build\kernel\src\idle.o
 .debug_abbrev  0x00000924      0x1fb build\kernel\src\ipc.o
 .debug_abbrev  0x00000b1f       0xde build\kernel\src\irq.o
 .debug_abbrev  0x00000bfd      0x2c1 build\kernel\src\kservice.o
 .debug_abbrev  0x00000ebe      0x208 build\kernel\src\mem.o
 .debug_abbrev  0x000010c6      0x1f8 build\kernel\src\object.o
 .debug_abbrev  0x000012be      0x23a build\kernel\src\scheduler.o
 .debug_abbrev  0x000014f8      0x23d build\kernel\src\thread.o
 .debug_abbrev  0x00001735      0x27f build\kernel\src\timer.o
 .debug_abbrev  0x000019b4      0x1f2 build\kernel\libcpu\arm\cortex-m4\cpuport.o
 .debug_abbrev  0x00001ba6       0x14 build\kernel\libcpu\arm\cortex-m4\context_gcc.o
 .debug_abbrev  0x00001bba      0x1a7 build\kernel\components\drivers\misc\pin.o
 .debug_abbrev  0x00001d61      0x22e build\kernel\components\drivers\serial\serial.o
 .debug_abbrev  0x00001f8f      0x182 build\kernel\components\drivers\src\completion.o
 .debug_abbrev  0x00002111      0x1b2 build\kernel\components\drivers\src\dataqueue.o
 .debug_abbrev  0x000022c3      0x2df build\kernel\components\finsh\shell.o
 .debug_abbrev  0x000025a2      0x24d build\kernel\components\finsh\cmd.o
 .debug_abbrev  0x000027ef      0x222 build\kernel\components\finsh\msh.o
 .debug_abbrev  0x00002a11       0xf8 build\kernel\components\libc\compilers\minilibc\stdlib.o
 .debug_abbrev  0x00002b09      0x1aa build\kernel\components\libc\compilers\minilibc\string.o
 .debug_abbrev  0x00002cb3      0x103 D:\IOT\rtthread-v4.0\rt-thread\bsp\stm32\libraries\STM32F4xx_HAL\CMSIS\Device\ST\STM32F4xx\Source\Templates\system_stm32f4xx.o
 .debug_abbrev  0x00002db6      0x1c8 D:\IOT\rtthread-v4.0\rt-thread\bsp\stm32\libraries\STM32F4xx_HAL\STM32F4xx_HAL_Driver\Src\stm32f4xx_hal.o
 .debug_abbrev  0x00002f7e      0x2c8 D:\IOT\rtthread-v4.0\rt-thread\bsp\stm32\libraries\STM32F4xx_HAL\STM32F4xx_HAL_Driver\Src\stm32f4xx_hal_cortex.o
 .debug_abbrev  0x00003246      0x228 D:\IOT\rtthread-v4.0\rt-thread\bsp\stm32\libraries\STM32F4xx_HAL\STM32F4xx_HAL_Driver\Src\stm32f4xx_hal_dma.o
 .debug_abbrev  0x0000346e      0x242 D:\IOT\rtthread-v4.0\rt-thread\bsp\stm32\libraries\STM32F4xx_HAL\STM32F4xx_HAL_Driver\Src\stm32f4xx_hal_rcc.o
 .debug_abbrev  0x000036b0      0x1ae D:\IOT\rtthread-v4.0\rt-thread\bsp\stm32\libraries\STM32F4xx_HAL\STM32F4xx_HAL_Driver\Src\stm32f4xx_hal_gpio.o
 .debug_abbrev  0x0000385e      0x1fb D:\IOT\rtthread-v4.0\rt-thread\bsp\stm32\libraries\STM32F4xx_HAL\STM32F4xx_HAL_Driver\Src\stm32f4xx_hal_uart.o
 .debug_abbrev  0x00003a59      0x246 D:\IOT\rtthread-v4.0\rt-thread\bsp\stm32\libraries\HAL_Drivers\drv_gpio.o
 .debug_abbrev  0x00003c9f      0x2e6 D:\IOT\rtthread-v4.0\rt-thread\bsp\stm32\libraries\HAL_Drivers\drv_usart.o
 .debug_abbrev  0x00003f85      0x262 D:\IOT\rtthread-v4.0\rt-thread\bsp\stm32\libraries\HAL_Drivers\drv_common.o

.debug_line     0x00000000     0x82cb
 *(.debug_line)
 .debug_line    0x00000000      0x12a build\applications\main.o
 .debug_line    0x0000012a      0x214 build\board\board.o
 .debug_line    0x0000033e      0x2ac build\board\CubeMX_Config\Src\stm32f4xx_hal_msp.o
 .debug_line    0x000005ea       0xe3 D:\IOT\rtthread-v4.0\rt-thread\bsp\stm32\libraries\STM32F4xx_HAL\CMSIS\Device\ST\STM32F4xx\Source\Templates\gcc\startup_stm32f407xx.o
 .debug_line    0x000006cd       0xe1 build\kernel\src\clock.o
 .debug_line    0x000007ae      0x172 build\kernel\src\components.o
 .debug_line    0x00000920      0x2a7 build\kernel\src\device.o
 .debug_line    0x00000bc7      0x1cb build\kernel\src\idle.o
 .debug_line    0x00000d92      0xb5e build\kernel\src\ipc.o
 .debug_line    0x000018f0       0xea build\kernel\src\irq.o
 .debug_line    0x000019da      0x5b5 build\kernel\src\kservice.o
 .debug_line    0x00001f8f      0x31b build\kernel\src\mem.o
 .debug_line    0x000022aa      0x2c9 build\kernel\src\object.o
 .debug_line    0x00002573      0x25e build\kernel\src\scheduler.o
 .debug_line    0x000027d1      0x41c build\kernel\src\thread.o
 .debug_line    0x00002bed      0x35f build\kernel\src\timer.o
 .debug_line    0x00002f4c      0x1bd build\kernel\libcpu\arm\cortex-m4\cpuport.o
 .debug_line    0x00003109       0xe6 build\kernel\libcpu\arm\cortex-m4\context_gcc.o
 .debug_line    0x000031ef      0x24f build\kernel\components\drivers\misc\pin.o
 .debug_line    0x0000343e      0x59e build\kernel\components\drivers\serial\serial.o
 .debug_line    0x000039dc      0x1b8 build\kernel\components\drivers\src\completion.o
 .debug_line    0x00003b94      0x282 build\kernel\components\drivers\src\dataqueue.o
 .debug_line    0x00003e16      0x3c7 build\kernel\components\finsh\shell.o
 .debug_line    0x000041dd      0x444 build\kernel\components\finsh\cmd.o
 .debug_line    0x00004621      0x267 build\kernel\components\finsh\msh.o
 .debug_line    0x00004888      0x179 build\kernel\components\libc\compilers\minilibc\stdlib.o
 .debug_line    0x00004a01      0x559 build\kernel\components\libc\compilers\minilibc\string.o
 .debug_line    0x00004f5a      0x1fd D:\IOT\rtthread-v4.0\rt-thread\bsp\stm32\libraries\STM32F4xx_HAL\CMSIS\Device\ST\STM32F4xx\Source\Templates\system_stm32f4xx.o
 .debug_line    0x00005157      0x45d D:\IOT\rtthread-v4.0\rt-thread\bsp\stm32\libraries\STM32F4xx_HAL\STM32F4xx_HAL_Driver\Src\stm32f4xx_hal.o
 .debug_line    0x000055b4      0x570 D:\IOT\rtthread-v4.0\rt-thread\bsp\stm32\libraries\STM32F4xx_HAL\STM32F4xx_HAL_Driver\Src\stm32f4xx_hal_cortex.o
 .debug_line    0x00005b24      0x533 D:\IOT\rtthread-v4.0\rt-thread\bsp\stm32\libraries\STM32F4xx_HAL\STM32F4xx_HAL_Driver\Src\stm32f4xx_hal_dma.o
 .debug_line    0x00006057      0x4da D:\IOT\rtthread-v4.0\rt-thread\bsp\stm32\libraries\STM32F4xx_HAL\STM32F4xx_HAL_Driver\Src\stm32f4xx_hal_rcc.o
 .debug_line    0x00006531      0x42e D:\IOT\rtthread-v4.0\rt-thread\bsp\stm32\libraries\STM32F4xx_HAL\STM32F4xx_HAL_Driver\Src\stm32f4xx_hal_gpio.o
 .debug_line    0x0000695f      0xb5d D:\IOT\rtthread-v4.0\rt-thread\bsp\stm32\libraries\STM32F4xx_HAL\STM32F4xx_HAL_Driver\Src\stm32f4xx_hal_uart.o
 .debug_line    0x000074bc      0x4ca D:\IOT\rtthread-v4.0\rt-thread\bsp\stm32\libraries\HAL_Drivers\drv_gpio.o
 .debug_line    0x00007986      0x5a2 D:\IOT\rtthread-v4.0\rt-thread\bsp\stm32\libraries\HAL_Drivers\drv_usart.o
 .debug_line    0x00007f28      0x3a3 D:\IOT\rtthread-v4.0\rt-thread\bsp\stm32\libraries\HAL_Drivers\drv_common.o

.debug_frame    0x00000000     0x5188
 *(.debug_frame)
 .debug_frame   0x00000000       0x34 build\applications\main.o
 .debug_frame   0x00000034       0x34 build\board\board.o
 .debug_frame   0x00000068       0xc4 build\board\CubeMX_Config\Src\stm32f4xx_hal_msp.o
 .debug_frame   0x0000012c       0xc0 build\kernel\src\clock.o
 .debug_frame   0x000001ec      0x158 build\kernel\src\components.o
 .debug_frame   0x00000344      0x20c build\kernel\src\device.o
 .debug_frame   0x00000550      0x134 build\kernel\src\idle.o
 .debug_frame   0x00000684      0x6cc build\kernel\src\ipc.o
 .debug_frame   0x00000d50       0xcc build\kernel\src\irq.o
 .debug_frame   0x00000e1c      0x510 build\kernel\src\kservice.o
 .debug_frame   0x0000132c      0x180 build\kernel\src\mem.o
 .debug_frame   0x000014ac      0x27c build\kernel\src\object.o
 .debug_frame   0x00001728      0x240 build\kernel\src\scheduler.o
 .debug_frame   0x00001968      0x398 build\kernel\src\thread.o
 .debug_frame   0x00001d00      0x300 build\kernel\src\timer.o
 .debug_frame   0x00002000      0x158 build\kernel\libcpu\arm\cortex-m4\cpuport.o
 .debug_frame   0x00002158      0x17c build\kernel\components\drivers\misc\pin.o
 .debug_frame   0x000022d4      0x2c4 build\kernel\components\drivers\serial\serial.o
 .debug_frame   0x00002598       0xf4 build\kernel\components\drivers\src\completion.o
 .debug_frame   0x0000268c      0x140 build\kernel\components\drivers\src\dataqueue.o
 .debug_frame   0x000027cc      0x25c build\kernel\components\finsh\shell.o
 .debug_frame   0x00002a28      0x2cc build\kernel\components\finsh\cmd.o
 .debug_frame   0x00002cf4      0x178 build\kernel\components\finsh\msh.o
 .debug_frame   0x00002e6c       0xf0 build\kernel\components\libc\compilers\minilibc\stdlib.o
 .debug_frame   0x00002f5c      0x440 build\kernel\components\libc\compilers\minilibc\string.o
 .debug_frame   0x0000339c       0x58 D:\IOT\rtthread-v4.0\rt-thread\bsp\stm32\libraries\STM32F4xx_HAL\CMSIS\Device\ST\STM32F4xx\Source\Templates\system_stm32f4xx.o
 .debug_frame   0x000033f4      0x374 D:\IOT\rtthread-v4.0\rt-thread\bsp\stm32\libraries\STM32F4xx_HAL\STM32F4xx_HAL_Driver\Src\stm32f4xx_hal.o
 .debug_frame   0x00003768      0x498 D:\IOT\rtthread-v4.0\rt-thread\bsp\stm32\libraries\STM32F4xx_HAL\STM32F4xx_HAL_Driver\Src\stm32f4xx_hal_cortex.o
 .debug_frame   0x00003c00      0x250 D:\IOT\rtthread-v4.0\rt-thread\bsp\stm32\libraries\STM32F4xx_HAL\STM32F4xx_HAL_Driver\Src\stm32f4xx_hal_dma.o
 .debug_frame   0x00003e50      0x1f8 D:\IOT\rtthread-v4.0\rt-thread\bsp\stm32\libraries\STM32F4xx_HAL\STM32F4xx_HAL_Driver\Src\stm32f4xx_hal_rcc.o
 .debug_frame   0x00004048      0x14c D:\IOT\rtthread-v4.0\rt-thread\bsp\stm32\libraries\STM32F4xx_HAL\STM32F4xx_HAL_Driver\Src\stm32f4xx_hal_gpio.o
 .debug_frame   0x00004194      0x83c D:\IOT\rtthread-v4.0\rt-thread\bsp\stm32\libraries\STM32F4xx_HAL\STM32F4xx_HAL_Driver\Src\stm32f4xx_hal_uart.o
 .debug_frame   0x000049d0      0x28c D:\IOT\rtthread-v4.0\rt-thread\bsp\stm32\libraries\HAL_Drivers\drv_gpio.o
 .debug_frame   0x00004c5c      0x278 D:\IOT\rtthread-v4.0\rt-thread\bsp\stm32\libraries\HAL_Drivers\drv_usart.o
 .debug_frame   0x00004ed4      0x17c D:\IOT\rtthread-v4.0\rt-thread\bsp\stm32\libraries\HAL_Drivers\drv_common.o
 .debug_frame   0x00005050       0x2c c:/myprogram/rt_thread/env/tools/gnu_gcc/arm_gcc/mingw/bin/../lib/gcc/arm-none-eabi/5.4.1/armv7e-m/fpu\libgcc.a(_aeabi_uldivmod.o)
 .debug_frame   0x0000507c       0x34 c:/myprogram/rt_thread/env/tools/gnu_gcc/arm_gcc/mingw/bin/../lib/gcc/arm-none-eabi/5.4.1/armv7e-m/fpu\libgcc.a(_udivmoddi4.o)
 .debug_frame   0x000050b0       0x50 c:/myprogram/rt_thread/env/tools/gnu_gcc/arm_gcc/mingw/bin/../lib/gcc/arm-none-eabi/5.4.1/../../../../arm-none-eabi/lib/armv7e-m/fpu\libc.a(lib_a-__call_atexit.o)
 .debug_frame   0x00005100       0x20 c:/myprogram/rt_thread/env/tools/gnu_gcc/arm_gcc/mingw/bin/../lib/gcc/arm-none-eabi/5.4.1/../../../../arm-none-eabi/lib/armv7e-m/fpu\libc.a(lib_a-atexit.o)
 .debug_frame   0x00005120       0x34 c:/myprogram/rt_thread/env/tools/gnu_gcc/arm_gcc/mingw/bin/../lib/gcc/arm-none-eabi/5.4.1/../../../../arm-none-eabi/lib/armv7e-m/fpu\libc.a(lib_a-fini.o)
 .debug_frame   0x00005154       0x34 c:/myprogram/rt_thread/env/tools/gnu_gcc/arm_gcc/mingw/bin/../lib/gcc/arm-none-eabi/5.4.1/../../../../arm-none-eabi/lib/armv7e-m/fpu\libc.a(lib_a-__atexit.o)

.debug_str      0x00000000     0x5a63
 *(.debug_str)
 .debug_str     0x00000000      0x17d build\applications\main.o
                                0x1c9 (size before relaxing)
 .debug_str     0x0000017d      0x25f build\board\board.o
                                0x415 (size before relaxing)
 .debug_str     0x000003dc      0x61f build\board\CubeMX_Config\Src\stm32f4xx_hal_msp.o
                                0x934 (size before relaxing)
 .debug_str     0x000009fb      0x19f build\kernel\src\clock.o
                                0x398 (size before relaxing)
 .debug_str     0x00000b9a      0x122 build\kernel\src\components.o
                                0x449 (size before relaxing)
 .debug_str     0x00000cbc      0x53b build\kernel\src\device.o
                                0x7b8 (size before relaxing)
 .debug_str     0x000011f7      0x121 build\kernel\src\idle.o
                                0x44d (size before relaxing)
 .debug_str     0x00001318      0x496 build\kernel\src\ipc.o
                                0x959 (size before relaxing)
 .debug_str     0x000017ae       0xdd build\kernel\src\irq.o
                                0x288 (size before relaxing)
 .debug_str     0x0000188b      0x323 build\kernel\src\kservice.o
                                0x908 (size before relaxing)
 .debug_str     0x00001bae      0x1bd build\kernel\src\mem.o
                                0x444 (size before relaxing)
 .debug_str     0x00001d6b      0x2a3 build\kernel\src\object.o
                                0x6c2 (size before relaxing)
 .debug_str     0x0000200e      0x202 build\kernel\src\scheduler.o
                                0x5e0 (size before relaxing)
 .debug_str     0x00002210      0x1f0 build\kernel\src\thread.o
                                0x74f (size before relaxing)
 .debug_str     0x00002400      0x1bb build\kernel\src\timer.o
                                0x60e (size before relaxing)
 .debug_str     0x000025bb      0x1c0 build\kernel\libcpu\arm\cortex-m4\cpuport.o
                                0x3c1 (size before relaxing)
 .debug_str     0x0000277b      0x1b5 build\kernel\components\drivers\misc\pin.o
                                0x718 (size before relaxing)
 .debug_str     0x00002930      0x35d build\kernel\components\drivers\serial\serial.o
                                0x8de (size before relaxing)
 .debug_str     0x00002c8d       0x7c build\kernel\components\drivers\src\completion.o
                                0x410 (size before relaxing)
 .debug_str     0x00002d09       0xa1 build\kernel\components\drivers\src\dataqueue.o
                                0x4bd (size before relaxing)
 .debug_str     0x00002daa      0x2d8 build\kernel\components\finsh\shell.o
                                0x952 (size before relaxing)
 .debug_str     0x00003082      0x76f build\kernel\components\finsh\cmd.o
                               0x108c (size before relaxing)
 .debug_str     0x000037f1      0x1cd build\kernel\components\finsh\msh.o
                                0x41d (size before relaxing)
 .debug_str     0x000039be       0x5d build\kernel\components\libc\compilers\minilibc\stdlib.o
                                0x219 (size before relaxing)
 .debug_str     0x00003a1b      0x13c build\kernel\components\libc\compilers\minilibc\string.o
                                0x37e (size before relaxing)
 .debug_str     0x00003b57      0x13b D:\IOT\rtthread-v4.0\rt-thread\bsp\stm32\libraries\STM32F4xx_HAL\CMSIS\Device\ST\STM32F4xx\Source\Templates\system_stm32f4xx.o
                                0x3e8 (size before relaxing)
 .debug_str     0x00003c92      0x858 D:\IOT\rtthread-v4.0\rt-thread\bsp\stm32\libraries\STM32F4xx_HAL\STM32F4xx_HAL_Driver\Src\stm32f4xx_hal.o
                                0xb5b (size before relaxing)
 .debug_str     0x000044ea      0x4c6 D:\IOT\rtthread-v4.0\rt-thread\bsp\stm32\libraries\STM32F4xx_HAL\STM32F4xx_HAL_Driver\Src\stm32f4xx_hal_cortex.o
                                0xc63 (size before relaxing)
 .debug_str     0x000049b0      0x341 D:\IOT\rtthread-v4.0\rt-thread\bsp\stm32\libraries\STM32F4xx_HAL\STM32F4xx_HAL_Driver\Src\stm32f4xx_hal_dma.o
                                0x7b3 (size before relaxing)
 .debug_str     0x00004cf1      0x1e2 D:\IOT\rtthread-v4.0\rt-thread\bsp\stm32\libraries\STM32F4xx_HAL\STM32F4xx_HAL_Driver\Src\stm32f4xx_hal_rcc.o
                                0x6eb (size before relaxing)
 .debug_str     0x00004ed3      0x1a5 D:\IOT\rtthread-v4.0\rt-thread\bsp\stm32\libraries\STM32F4xx_HAL\STM32F4xx_HAL_Driver\Src\stm32f4xx_hal_gpio.o
                                0x51e (size before relaxing)
 .debug_str     0x00005078      0x553 D:\IOT\rtthread-v4.0\rt-thread\bsp\stm32\libraries\STM32F4xx_HAL\STM32F4xx_HAL_Driver\Src\stm32f4xx_hal_uart.o
                                0xbcf (size before relaxing)
 .debug_str     0x000055cb      0x1e2 D:\IOT\rtthread-v4.0\rt-thread\bsp\stm32\libraries\HAL_Drivers\drv_gpio.o
                                0xe15 (size before relaxing)
 .debug_str     0x000057ad      0x1a3 D:\IOT\rtthread-v4.0\rt-thread\bsp\stm32\libraries\HAL_Drivers\drv_usart.o
                               0x12be (size before relaxing)
 .debug_str     0x00005950      0x113 D:\IOT\rtthread-v4.0\rt-thread\bsp\stm32\libraries\HAL_Drivers\drv_common.o
                                0x8bf (size before relaxing)

.debug_loc      0x00000000     0xa8a6
 *(.debug_loc)
 .debug_loc     0x00000000       0x50 build\applications\main.o
 .debug_loc     0x00000050       0x52 build\board\board.o
 .debug_loc     0x000000a2      0x190 build\board\CubeMX_Config\Src\stm32f4xx_hal_msp.o
 .debug_loc     0x00000232      0x184 build\kernel\src\clock.o
 .debug_loc     0x000003b6      0x2a8 build\kernel\src\components.o
 .debug_loc     0x0000065e      0x454 build\kernel\src\device.o
 .debug_loc     0x00000ab2      0x274 build\kernel\src\idle.o
 .debug_loc     0x00000d26      0xe84 build\kernel\src\ipc.o
 .debug_loc     0x00001baa      0x1a8 build\kernel\src\irq.o
 .debug_loc     0x00001d52      0xb00 build\kernel\src\kservice.o
 .debug_loc     0x00002852      0x320 build\kernel\src\mem.o
 .debug_loc     0x00002b72      0x554 build\kernel\src\object.o
 .debug_loc     0x000030c6      0x474 build\kernel\src\scheduler.o
 .debug_loc     0x0000353a      0x798 build\kernel\src\thread.o
 .debug_loc     0x00003cd2      0x658 build\kernel\src\timer.o
 .debug_loc     0x0000432a      0x284 build\kernel\libcpu\arm\cortex-m4\cpuport.o
 .debug_loc     0x000045ae      0x320 build\kernel\components\drivers\misc\pin.o
 .debug_loc     0x000048ce      0x5ce build\kernel\components\drivers\serial\serial.o
 .debug_loc     0x00004e9c      0x204 build\kernel\components\drivers\src\completion.o
 .debug_loc     0x000050a0      0x2a4 build\kernel\components\drivers\src\dataqueue.o
 .debug_loc     0x00005344      0x4c0 build\kernel\components\finsh\shell.o
 .debug_loc     0x00005804      0x582 build\kernel\components\finsh\cmd.o
 .debug_loc     0x00005d86      0x322 build\kernel\components\finsh\msh.o
 .debug_loc     0x000060a8      0x1f8 build\kernel\components\libc\compilers\minilibc\stdlib.o
 .debug_loc     0x000062a0      0x91a build\kernel\components\libc\compilers\minilibc\string.o
 .debug_loc     0x00006bba       0xa0 D:\IOT\rtthread-v4.0\rt-thread\bsp\stm32\libraries\STM32F4xx_HAL\CMSIS\Device\ST\STM32F4xx\Source\Templates\system_stm32f4xx.o
 .debug_loc     0x00006c5a      0x720 D:\IOT\rtthread-v4.0\rt-thread\bsp\stm32\libraries\STM32F4xx_HAL\STM32F4xx_HAL_Driver\Src\stm32f4xx_hal.o
 .debug_loc     0x0000737a      0x9f4 D:\IOT\rtthread-v4.0\rt-thread\bsp\stm32\libraries\STM32F4xx_HAL\STM32F4xx_HAL_Driver\Src\stm32f4xx_hal_cortex.o
 .debug_loc     0x00007d6e      0x510 D:\IOT\rtthread-v4.0\rt-thread\bsp\stm32\libraries\STM32F4xx_HAL\STM32F4xx_HAL_Driver\Src\stm32f4xx_hal_dma.o
 .debug_loc     0x0000827e      0x3d2 D:\IOT\rtthread-v4.0\rt-thread\bsp\stm32\libraries\STM32F4xx_HAL\STM32F4xx_HAL_Driver\Src\stm32f4xx_hal_rcc.o
 .debug_loc     0x00008650      0x2d4 D:\IOT\rtthread-v4.0\rt-thread\bsp\stm32\libraries\STM32F4xx_HAL\STM32F4xx_HAL_Driver\Src\stm32f4xx_hal_gpio.o
 .debug_loc     0x00008924     0x1250 D:\IOT\rtthread-v4.0\rt-thread\bsp\stm32\libraries\STM32F4xx_HAL\STM32F4xx_HAL_Driver\Src\stm32f4xx_hal_uart.o
 .debug_loc     0x00009b74      0x50e D:\IOT\rtthread-v4.0\rt-thread\bsp\stm32\libraries\HAL_Drivers\drv_gpio.o
 .debug_loc     0x0000a082      0x538 D:\IOT\rtthread-v4.0\rt-thread\bsp\stm32\libraries\HAL_Drivers\drv_usart.o
 .debug_loc     0x0000a5ba      0x2ec D:\IOT\rtthread-v4.0\rt-thread\bsp\stm32\libraries\HAL_Drivers\drv_common.o

.debug_macinfo
 *(.debug_macinfo)

.debug_weaknames
 *(.debug_weaknames)

.debug_funcnames
 *(.debug_funcnames)

.debug_typenames
 *(.debug_typenames)

.debug_varnames
 *(.debug_varnames)
OUTPUT(rtthread.elf elf32-littlearm)

.debug_ranges   0x00000000     0x12d8
 .debug_ranges  0x00000000       0x10 build\applications\main.o
 .debug_ranges  0x00000010       0x10 build\board\board.o
 .debug_ranges  0x00000020       0x30 build\board\CubeMX_Config\Src\stm32f4xx_hal_msp.o
 .debug_ranges  0x00000050       0x20 D:\IOT\rtthread-v4.0\rt-thread\bsp\stm32\libraries\STM32F4xx_HAL\CMSIS\Device\ST\STM32F4xx\Source\Templates\gcc\startup_stm32f407xx.o
 .debug_ranges  0x00000070       0x30 build\kernel\src\clock.o
 .debug_ranges  0x000000a0       0x58 build\kernel\src\components.o
 .debug_ranges  0x000000f8       0x78 build\kernel\src\device.o
 .debug_ranges  0x00000170       0x48 build\kernel\src\idle.o
 .debug_ranges  0x000001b8      0x178 build\kernel\src\ipc.o
 .debug_ranges  0x00000330       0x30 build\kernel\src\irq.o
 .debug_ranges  0x00000360      0x108 build\kernel\src\kservice.o
 .debug_ranges  0x00000468       0x58 build\kernel\src\mem.o
 .debug_ranges  0x000004c0       0x88 build\kernel\src\object.o
 .debug_ranges  0x00000548       0xb0 build\kernel\src\scheduler.o
 .debug_ranges  0x000005f8       0xc8 build\kernel\src\thread.o
 .debug_ranges  0x000006c0       0xc0 build\kernel\src\timer.o
 .debug_ranges  0x00000780       0x70 build\kernel\libcpu\arm\cortex-m4\cpuport.o
 .debug_ranges  0x000007f0       0x58 build\kernel\components\drivers\misc\pin.o
 .debug_ranges  0x00000848       0xe8 build\kernel\components\drivers\serial\serial.o
 .debug_ranges  0x00000930       0x38 build\kernel\components\drivers\src\completion.o
 .debug_ranges  0x00000968       0x48 build\kernel\components\drivers\src\dataqueue.o
 .debug_ranges  0x000009b0       0x90 build\kernel\components\finsh\shell.o
 .debug_ranges  0x00000a40       0x98 build\kernel\components\finsh\cmd.o
 .debug_ranges  0x00000ad8       0x58 build\kernel\components\finsh\msh.o
 .debug_ranges  0x00000b30       0x38 build\kernel\components\libc\compilers\minilibc\stdlib.o
 .debug_ranges  0x00000b68       0xe0 build\kernel\components\libc\compilers\minilibc\string.o
 .debug_ranges  0x00000c48       0x18 D:\IOT\rtthread-v4.0\rt-thread\bsp\stm32\libraries\STM32F4xx_HAL\CMSIS\Device\ST\STM32F4xx\Source\Templates\system_stm32f4xx.o
 .debug_ranges  0x00000c60       0xe0 D:\IOT\rtthread-v4.0\rt-thread\bsp\stm32\libraries\STM32F4xx_HAL\STM32F4xx_HAL_Driver\Src\stm32f4xx_hal.o
 .debug_ranges  0x00000d40      0x108 D:\IOT\rtthread-v4.0\rt-thread\bsp\stm32\libraries\STM32F4xx_HAL\STM32F4xx_HAL_Driver\Src\stm32f4xx_hal_cortex.o
 .debug_ranges  0x00000e48       0x80 D:\IOT\rtthread-v4.0\rt-thread\bsp\stm32\libraries\STM32F4xx_HAL\STM32F4xx_HAL_Driver\Src\stm32f4xx_hal_dma.o
 .debug_ranges  0x00000ec8       0x78 D:\IOT\rtthread-v4.0\rt-thread\bsp\stm32\libraries\STM32F4xx_HAL\STM32F4xx_HAL_Driver\Src\stm32f4xx_hal_rcc.o
 .debug_ranges  0x00000f40       0x48 D:\IOT\rtthread-v4.0\rt-thread\bsp\stm32\libraries\STM32F4xx_HAL\STM32F4xx_HAL_Driver\Src\stm32f4xx_hal_gpio.o
 .debug_ranges  0x00000f88      0x1c0 D:\IOT\rtthread-v4.0\rt-thread\bsp\stm32\libraries\STM32F4xx_HAL\STM32F4xx_HAL_Driver\Src\stm32f4xx_hal_uart.o
 .debug_ranges  0x00001148       0xa0 D:\IOT\rtthread-v4.0\rt-thread\bsp\stm32\libraries\HAL_Drivers\drv_gpio.o
 .debug_ranges  0x000011e8       0x90 D:\IOT\rtthread-v4.0\rt-thread\bsp\stm32\libraries\HAL_Drivers\drv_usart.o
 .debug_ranges  0x00001278       0x60 D:\IOT\rtthread-v4.0\rt-thread\bsp\stm32\libraries\HAL_Drivers\drv_common.o

Cross Reference Table

Symbol                                            File
ADC_IRQHandler                                    D:\IOT\rtthread-v4.0\rt-thread\bsp\stm32\libraries\STM32F4xx_HAL\CMSIS\Device\ST\STM32F4xx\Source\Templates\gcc\startup_stm32f407xx.o
AHBPrescTable                                     D:\IOT\rtthread-v4.0\rt-thread\bsp\stm32\libraries\STM32F4xx_HAL\CMSIS\Device\ST\STM32F4xx\Source\Templates\system_stm32f4xx.o
                                                  D:\IOT\rtthread-v4.0\rt-thread\bsp\stm32\libraries\STM32F4xx_HAL\STM32F4xx_HAL_Driver\Src\stm32f4xx_hal_rcc.o
APBPrescTable                                     D:\IOT\rtthread-v4.0\rt-thread\bsp\stm32\libraries\STM32F4xx_HAL\CMSIS\Device\ST\STM32F4xx\Source\Templates\system_stm32f4xx.o
                                                  D:\IOT\rtthread-v4.0\rt-thread\bsp\stm32\libraries\STM32F4xx_HAL\STM32F4xx_HAL_Driver\Src\stm32f4xx_hal_rcc.o
BusFault_Handler                                  D:\IOT\rtthread-v4.0\rt-thread\bsp\stm32\libraries\STM32F4xx_HAL\CMSIS\Device\ST\STM32F4xx\Source\Templates\gcc\startup_stm32f407xx.o
CAN1_RX0_IRQHandler                               D:\IOT\rtthread-v4.0\rt-thread\bsp\stm32\libraries\STM32F4xx_HAL\CMSIS\Device\ST\STM32F4xx\Source\Templates\gcc\startup_stm32f407xx.o
CAN1_RX1_IRQHandler                               D:\IOT\rtthread-v4.0\rt-thread\bsp\stm32\libraries\STM32F4xx_HAL\CMSIS\Device\ST\STM32F4xx\Source\Templates\gcc\startup_stm32f407xx.o
CAN1_SCE_IRQHandler                               D:\IOT\rtthread-v4.0\rt-thread\bsp\stm32\libraries\STM32F4xx_HAL\CMSIS\Device\ST\STM32F4xx\Source\Templates\gcc\startup_stm32f407xx.o
CAN1_TX_IRQHandler                                D:\IOT\rtthread-v4.0\rt-thread\bsp\stm32\libraries\STM32F4xx_HAL\CMSIS\Device\ST\STM32F4xx\Source\Templates\gcc\startup_stm32f407xx.o
CAN2_RX0_IRQHandler                               D:\IOT\rtthread-v4.0\rt-thread\bsp\stm32\libraries\STM32F4xx_HAL\CMSIS\Device\ST\STM32F4xx\Source\Templates\gcc\startup_stm32f407xx.o
CAN2_RX1_IRQHandler                               D:\IOT\rtthread-v4.0\rt-thread\bsp\stm32\libraries\STM32F4xx_HAL\CMSIS\Device\ST\STM32F4xx\Source\Templates\gcc\startup_stm32f407xx.o
CAN2_SCE_IRQHandler                               D:\IOT\rtthread-v4.0\rt-thread\bsp\stm32\libraries\STM32F4xx_HAL\CMSIS\Device\ST\STM32F4xx\Source\Templates\gcc\startup_stm32f407xx.o
CAN2_TX_IRQHandler                                D:\IOT\rtthread-v4.0\rt-thread\bsp\stm32\libraries\STM32F4xx_HAL\CMSIS\Device\ST\STM32F4xx\Source\Templates\gcc\startup_stm32f407xx.o
DCMI_IRQHandler                                   D:\IOT\rtthread-v4.0\rt-thread\bsp\stm32\libraries\STM32F4xx_HAL\CMSIS\Device\ST\STM32F4xx\Source\Templates\gcc\startup_stm32f407xx.o
DMA1_Stream0_IRQHandler                           D:\IOT\rtthread-v4.0\rt-thread\bsp\stm32\libraries\STM32F4xx_HAL\CMSIS\Device\ST\STM32F4xx\Source\Templates\gcc\startup_stm32f407xx.o
DMA1_Stream1_IRQHandler                           D:\IOT\rtthread-v4.0\rt-thread\bsp\stm32\libraries\STM32F4xx_HAL\CMSIS\Device\ST\STM32F4xx\Source\Templates\gcc\startup_stm32f407xx.o
DMA1_Stream2_IRQHandler                           D:\IOT\rtthread-v4.0\rt-thread\bsp\stm32\libraries\STM32F4xx_HAL\CMSIS\Device\ST\STM32F4xx\Source\Templates\gcc\startup_stm32f407xx.o
DMA1_Stream3_IRQHandler                           D:\IOT\rtthread-v4.0\rt-thread\bsp\stm32\libraries\STM32F4xx_HAL\CMSIS\Device\ST\STM32F4xx\Source\Templates\gcc\startup_stm32f407xx.o
DMA1_Stream4_IRQHandler                           D:\IOT\rtthread-v4.0\rt-thread\bsp\stm32\libraries\STM32F4xx_HAL\CMSIS\Device\ST\STM32F4xx\Source\Templates\gcc\startup_stm32f407xx.o
DMA1_Stream5_IRQHandler                           D:\IOT\rtthread-v4.0\rt-thread\bsp\stm32\libraries\STM32F4xx_HAL\CMSIS\Device\ST\STM32F4xx\Source\Templates\gcc\startup_stm32f407xx.o
DMA1_Stream6_IRQHandler                           D:\IOT\rtthread-v4.0\rt-thread\bsp\stm32\libraries\STM32F4xx_HAL\CMSIS\Device\ST\STM32F4xx\Source\Templates\gcc\startup_stm32f407xx.o
DMA1_Stream7_IRQHandler                           D:\IOT\rtthread-v4.0\rt-thread\bsp\stm32\libraries\STM32F4xx_HAL\CMSIS\Device\ST\STM32F4xx\Source\Templates\gcc\startup_stm32f407xx.o
DMA2_Stream0_IRQHandler                           D:\IOT\rtthread-v4.0\rt-thread\bsp\stm32\libraries\STM32F4xx_HAL\CMSIS\Device\ST\STM32F4xx\Source\Templates\gcc\startup_stm32f407xx.o
DMA2_Stream1_IRQHandler                           D:\IOT\rtthread-v4.0\rt-thread\bsp\stm32\libraries\STM32F4xx_HAL\CMSIS\Device\ST\STM32F4xx\Source\Templates\gcc\startup_stm32f407xx.o
DMA2_Stream2_IRQHandler                           D:\IOT\rtthread-v4.0\rt-thread\bsp\stm32\libraries\STM32F4xx_HAL\CMSIS\Device\ST\STM32F4xx\Source\Templates\gcc\startup_stm32f407xx.o
DMA2_Stream3_IRQHandler                           D:\IOT\rtthread-v4.0\rt-thread\bsp\stm32\libraries\STM32F4xx_HAL\CMSIS\Device\ST\STM32F4xx\Source\Templates\gcc\startup_stm32f407xx.o
DMA2_Stream4_IRQHandler                           D:\IOT\rtthread-v4.0\rt-thread\bsp\stm32\libraries\STM32F4xx_HAL\CMSIS\Device\ST\STM32F4xx\Source\Templates\gcc\startup_stm32f407xx.o
DMA2_Stream5_IRQHandler                           D:\IOT\rtthread-v4.0\rt-thread\bsp\stm32\libraries\STM32F4xx_HAL\CMSIS\Device\ST\STM32F4xx\Source\Templates\gcc\startup_stm32f407xx.o
DMA2_Stream6_IRQHandler                           D:\IOT\rtthread-v4.0\rt-thread\bsp\stm32\libraries\STM32F4xx_HAL\CMSIS\Device\ST\STM32F4xx\Source\Templates\gcc\startup_stm32f407xx.o
DMA2_Stream7_IRQHandler                           D:\IOT\rtthread-v4.0\rt-thread\bsp\stm32\libraries\STM32F4xx_HAL\CMSIS\Device\ST\STM32F4xx\Source\Templates\gcc\startup_stm32f407xx.o
DebugMon_Handler                                  D:\IOT\rtthread-v4.0\rt-thread\bsp\stm32\libraries\STM32F4xx_HAL\CMSIS\Device\ST\STM32F4xx\Source\Templates\gcc\startup_stm32f407xx.o
Default_Handler                                   D:\IOT\rtthread-v4.0\rt-thread\bsp\stm32\libraries\STM32F4xx_HAL\CMSIS\Device\ST\STM32F4xx\Source\Templates\gcc\startup_stm32f407xx.o
ETH_IRQHandler                                    D:\IOT\rtthread-v4.0\rt-thread\bsp\stm32\libraries\STM32F4xx_HAL\CMSIS\Device\ST\STM32F4xx\Source\Templates\gcc\startup_stm32f407xx.o
ETH_WKUP_IRQHandler                               D:\IOT\rtthread-v4.0\rt-thread\bsp\stm32\libraries\STM32F4xx_HAL\CMSIS\Device\ST\STM32F4xx\Source\Templates\gcc\startup_stm32f407xx.o
EXTI0_IRQHandler                                  D:\IOT\rtthread-v4.0\rt-thread\bsp\stm32\libraries\HAL_Drivers\drv_gpio.o
                                                  D:\IOT\rtthread-v4.0\rt-thread\bsp\stm32\libraries\STM32F4xx_HAL\CMSIS\Device\ST\STM32F4xx\Source\Templates\gcc\startup_stm32f407xx.o
EXTI15_10_IRQHandler                              D:\IOT\rtthread-v4.0\rt-thread\bsp\stm32\libraries\HAL_Drivers\drv_gpio.o
                                                  D:\IOT\rtthread-v4.0\rt-thread\bsp\stm32\libraries\STM32F4xx_HAL\CMSIS\Device\ST\STM32F4xx\Source\Templates\gcc\startup_stm32f407xx.o
EXTI1_IRQHandler                                  D:\IOT\rtthread-v4.0\rt-thread\bsp\stm32\libraries\HAL_Drivers\drv_gpio.o
                                                  D:\IOT\rtthread-v4.0\rt-thread\bsp\stm32\libraries\STM32F4xx_HAL\CMSIS\Device\ST\STM32F4xx\Source\Templates\gcc\startup_stm32f407xx.o
EXTI2_IRQHandler                                  D:\IOT\rtthread-v4.0\rt-thread\bsp\stm32\libraries\HAL_Drivers\drv_gpio.o
                                                  D:\IOT\rtthread-v4.0\rt-thread\bsp\stm32\libraries\STM32F4xx_HAL\CMSIS\Device\ST\STM32F4xx\Source\Templates\gcc\startup_stm32f407xx.o
EXTI3_IRQHandler                                  D:\IOT\rtthread-v4.0\rt-thread\bsp\stm32\libraries\HAL_Drivers\drv_gpio.o
                                                  D:\IOT\rtthread-v4.0\rt-thread\bsp\stm32\libraries\STM32F4xx_HAL\CMSIS\Device\ST\STM32F4xx\Source\Templates\gcc\startup_stm32f407xx.o
EXTI4_IRQHandler                                  D:\IOT\rtthread-v4.0\rt-thread\bsp\stm32\libraries\HAL_Drivers\drv_gpio.o
                                                  D:\IOT\rtthread-v4.0\rt-thread\bsp\stm32\libraries\STM32F4xx_HAL\CMSIS\Device\ST\STM32F4xx\Source\Templates\gcc\startup_stm32f407xx.o
EXTI9_5_IRQHandler                                D:\IOT\rtthread-v4.0\rt-thread\bsp\stm32\libraries\HAL_Drivers\drv_gpio.o
                                                  D:\IOT\rtthread-v4.0\rt-thread\bsp\stm32\libraries\STM32F4xx_HAL\CMSIS\Device\ST\STM32F4xx\Source\Templates\gcc\startup_stm32f407xx.o
FLASH_IRQHandler                                  D:\IOT\rtthread-v4.0\rt-thread\bsp\stm32\libraries\STM32F4xx_HAL\CMSIS\Device\ST\STM32F4xx\Source\Templates\gcc\startup_stm32f407xx.o
FPU_IRQHandler                                    D:\IOT\rtthread-v4.0\rt-thread\bsp\stm32\libraries\STM32F4xx_HAL\CMSIS\Device\ST\STM32F4xx\Source\Templates\gcc\startup_stm32f407xx.o
FSMC_IRQHandler                                   D:\IOT\rtthread-v4.0\rt-thread\bsp\stm32\libraries\STM32F4xx_HAL\CMSIS\Device\ST\STM32F4xx\Source\Templates\gcc\startup_stm32f407xx.o
HAL_DBGMCU_DisableDBGSleepMode                    D:\IOT\rtthread-v4.0\rt-thread\bsp\stm32\libraries\STM32F4xx_HAL\STM32F4xx_HAL_Driver\Src\stm32f4xx_hal.o
HAL_DBGMCU_DisableDBGStandbyMode                  D:\IOT\rtthread-v4.0\rt-thread\bsp\stm32\libraries\STM32F4xx_HAL\STM32F4xx_HAL_Driver\Src\stm32f4xx_hal.o
HAL_DBGMCU_DisableDBGStopMode                     D:\IOT\rtthread-v4.0\rt-thread\bsp\stm32\libraries\STM32F4xx_HAL\STM32F4xx_HAL_Driver\Src\stm32f4xx_hal.o
HAL_DBGMCU_EnableDBGSleepMode                     D:\IOT\rtthread-v4.0\rt-thread\bsp\stm32\libraries\STM32F4xx_HAL\STM32F4xx_HAL_Driver\Src\stm32f4xx_hal.o
HAL_DBGMCU_EnableDBGStandbyMode                   D:\IOT\rtthread-v4.0\rt-thread\bsp\stm32\libraries\STM32F4xx_HAL\STM32F4xx_HAL_Driver\Src\stm32f4xx_hal.o
HAL_DBGMCU_EnableDBGStopMode                      D:\IOT\rtthread-v4.0\rt-thread\bsp\stm32\libraries\STM32F4xx_HAL\STM32F4xx_HAL_Driver\Src\stm32f4xx_hal.o
HAL_DMAEx_ChangeMemory                            D:\IOT\rtthread-v4.0\rt-thread\bsp\stm32\libraries\STM32F4xx_HAL\STM32F4xx_HAL_Driver\Src\stm32f4xx_hal_dma_ex.o
HAL_DMAEx_MultiBufferStart                        D:\IOT\rtthread-v4.0\rt-thread\bsp\stm32\libraries\STM32F4xx_HAL\STM32F4xx_HAL_Driver\Src\stm32f4xx_hal_dma_ex.o
HAL_DMAEx_MultiBufferStart_IT                     D:\IOT\rtthread-v4.0\rt-thread\bsp\stm32\libraries\STM32F4xx_HAL\STM32F4xx_HAL_Driver\Src\stm32f4xx_hal_dma_ex.o
HAL_DMA_Abort                                     D:\IOT\rtthread-v4.0\rt-thread\bsp\stm32\libraries\STM32F4xx_HAL\STM32F4xx_HAL_Driver\Src\stm32f4xx_hal_dma.o
                                                  D:\IOT\rtthread-v4.0\rt-thread\bsp\stm32\libraries\STM32F4xx_HAL\STM32F4xx_HAL_Driver\Src\stm32f4xx_hal_uart.o
HAL_DMA_Abort_IT                                  D:\IOT\rtthread-v4.0\rt-thread\bsp\stm32\libraries\STM32F4xx_HAL\STM32F4xx_HAL_Driver\Src\stm32f4xx_hal_dma.o
                                                  D:\IOT\rtthread-v4.0\rt-thread\bsp\stm32\libraries\STM32F4xx_HAL\STM32F4xx_HAL_Driver\Src\stm32f4xx_hal_uart.o
HAL_DMA_DeInit                                    D:\IOT\rtthread-v4.0\rt-thread\bsp\stm32\libraries\STM32F4xx_HAL\STM32F4xx_HAL_Driver\Src\stm32f4xx_hal_dma.o
                                                  D:\IOT\rtthread-v4.0\rt-thread\bsp\stm32\libraries\HAL_Drivers\drv_usart.o
HAL_DMA_GetError                                  D:\IOT\rtthread-v4.0\rt-thread\bsp\stm32\libraries\STM32F4xx_HAL\STM32F4xx_HAL_Driver\Src\stm32f4xx_hal_dma.o
                                                  D:\IOT\rtthread-v4.0\rt-thread\bsp\stm32\libraries\STM32F4xx_HAL\STM32F4xx_HAL_Driver\Src\stm32f4xx_hal_uart.o
HAL_DMA_GetState                                  D:\IOT\rtthread-v4.0\rt-thread\bsp\stm32\libraries\STM32F4xx_HAL\STM32F4xx_HAL_Driver\Src\stm32f4xx_hal_dma.o
HAL_DMA_IRQHandler                                D:\IOT\rtthread-v4.0\rt-thread\bsp\stm32\libraries\STM32F4xx_HAL\STM32F4xx_HAL_Driver\Src\stm32f4xx_hal_dma.o
HAL_DMA_Init                                      D:\IOT\rtthread-v4.0\rt-thread\bsp\stm32\libraries\STM32F4xx_HAL\STM32F4xx_HAL_Driver\Src\stm32f4xx_hal_dma.o
                                                  D:\IOT\rtthread-v4.0\rt-thread\bsp\stm32\libraries\HAL_Drivers\drv_usart.o
HAL_DMA_PollForTransfer                           D:\IOT\rtthread-v4.0\rt-thread\bsp\stm32\libraries\STM32F4xx_HAL\STM32F4xx_HAL_Driver\Src\stm32f4xx_hal_dma.o
HAL_DMA_RegisterCallback                          D:\IOT\rtthread-v4.0\rt-thread\bsp\stm32\libraries\STM32F4xx_HAL\STM32F4xx_HAL_Driver\Src\stm32f4xx_hal_dma.o
HAL_DMA_Start                                     D:\IOT\rtthread-v4.0\rt-thread\bsp\stm32\libraries\STM32F4xx_HAL\STM32F4xx_HAL_Driver\Src\stm32f4xx_hal_dma.o
HAL_DMA_Start_IT                                  D:\IOT\rtthread-v4.0\rt-thread\bsp\stm32\libraries\STM32F4xx_HAL\STM32F4xx_HAL_Driver\Src\stm32f4xx_hal_dma.o
                                                  D:\IOT\rtthread-v4.0\rt-thread\bsp\stm32\libraries\STM32F4xx_HAL\STM32F4xx_HAL_Driver\Src\stm32f4xx_hal_uart.o
HAL_DMA_UnRegisterCallback                        D:\IOT\rtthread-v4.0\rt-thread\bsp\stm32\libraries\STM32F4xx_HAL\STM32F4xx_HAL_Driver\Src\stm32f4xx_hal_dma.o
HAL_DeInit                                        D:\IOT\rtthread-v4.0\rt-thread\bsp\stm32\libraries\STM32F4xx_HAL\STM32F4xx_HAL_Driver\Src\stm32f4xx_hal.o
HAL_Delay                                         D:\IOT\rtthread-v4.0\rt-thread\bsp\stm32\libraries\HAL_Drivers\drv_common.o
                                                  D:\IOT\rtthread-v4.0\rt-thread\bsp\stm32\libraries\STM32F4xx_HAL\STM32F4xx_HAL_Driver\Src\stm32f4xx_hal.o
HAL_DisableCompensationCell                       D:\IOT\rtthread-v4.0\rt-thread\bsp\stm32\libraries\STM32F4xx_HAL\STM32F4xx_HAL_Driver\Src\stm32f4xx_hal.o
HAL_EnableCompensationCell                        D:\IOT\rtthread-v4.0\rt-thread\bsp\stm32\libraries\STM32F4xx_HAL\STM32F4xx_HAL_Driver\Src\stm32f4xx_hal.o
HAL_GPIO_DeInit                                   D:\IOT\rtthread-v4.0\rt-thread\bsp\stm32\libraries\STM32F4xx_HAL\STM32F4xx_HAL_Driver\Src\stm32f4xx_hal_gpio.o
                                                  D:\IOT\rtthread-v4.0\rt-thread\bsp\stm32\libraries\HAL_Drivers\drv_gpio.o
                                                  build\board\CubeMX_Config\Src\stm32f4xx_hal_msp.o
HAL_GPIO_EXTI_Callback                            D:\IOT\rtthread-v4.0\rt-thread\bsp\stm32\libraries\HAL_Drivers\drv_gpio.o
                                                  D:\IOT\rtthread-v4.0\rt-thread\bsp\stm32\libraries\STM32F4xx_HAL\STM32F4xx_HAL_Driver\Src\stm32f4xx_hal_gpio.o
HAL_GPIO_EXTI_IRQHandler                          D:\IOT\rtthread-v4.0\rt-thread\bsp\stm32\libraries\STM32F4xx_HAL\STM32F4xx_HAL_Driver\Src\stm32f4xx_hal_gpio.o
                                                  D:\IOT\rtthread-v4.0\rt-thread\bsp\stm32\libraries\HAL_Drivers\drv_gpio.o
HAL_GPIO_Init                                     D:\IOT\rtthread-v4.0\rt-thread\bsp\stm32\libraries\STM32F4xx_HAL\STM32F4xx_HAL_Driver\Src\stm32f4xx_hal_gpio.o
                                                  D:\IOT\rtthread-v4.0\rt-thread\bsp\stm32\libraries\HAL_Drivers\drv_gpio.o
                                                  D:\IOT\rtthread-v4.0\rt-thread\bsp\stm32\libraries\STM32F4xx_HAL\STM32F4xx_HAL_Driver\Src\stm32f4xx_hal_rcc.o
                                                  build\board\CubeMX_Config\Src\stm32f4xx_hal_msp.o
HAL_GPIO_LockPin                                  D:\IOT\rtthread-v4.0\rt-thread\bsp\stm32\libraries\STM32F4xx_HAL\STM32F4xx_HAL_Driver\Src\stm32f4xx_hal_gpio.o
HAL_GPIO_ReadPin                                  D:\IOT\rtthread-v4.0\rt-thread\bsp\stm32\libraries\STM32F4xx_HAL\STM32F4xx_HAL_Driver\Src\stm32f4xx_hal_gpio.o
                                                  D:\IOT\rtthread-v4.0\rt-thread\bsp\stm32\libraries\HAL_Drivers\drv_gpio.o
HAL_GPIO_TogglePin                                D:\IOT\rtthread-v4.0\rt-thread\bsp\stm32\libraries\STM32F4xx_HAL\STM32F4xx_HAL_Driver\Src\stm32f4xx_hal_gpio.o
HAL_GPIO_WritePin                                 D:\IOT\rtthread-v4.0\rt-thread\bsp\stm32\libraries\STM32F4xx_HAL\STM32F4xx_HAL_Driver\Src\stm32f4xx_hal_gpio.o
                                                  D:\IOT\rtthread-v4.0\rt-thread\bsp\stm32\libraries\HAL_Drivers\drv_gpio.o
HAL_GetDEVID                                      D:\IOT\rtthread-v4.0\rt-thread\bsp\stm32\libraries\STM32F4xx_HAL\STM32F4xx_HAL_Driver\Src\stm32f4xx_hal.o
HAL_GetHalVersion                                 D:\IOT\rtthread-v4.0\rt-thread\bsp\stm32\libraries\STM32F4xx_HAL\STM32F4xx_HAL_Driver\Src\stm32f4xx_hal.o
HAL_GetREVID                                      D:\IOT\rtthread-v4.0\rt-thread\bsp\stm32\libraries\STM32F4xx_HAL\STM32F4xx_HAL_Driver\Src\stm32f4xx_hal.o
HAL_GetTick                                       D:\IOT\rtthread-v4.0\rt-thread\bsp\stm32\libraries\HAL_Drivers\drv_common.o
                                                  D:\IOT\rtthread-v4.0\rt-thread\bsp\stm32\libraries\STM32F4xx_HAL\STM32F4xx_HAL_Driver\Src\stm32f4xx_hal.o
                                                  D:\IOT\rtthread-v4.0\rt-thread\bsp\stm32\libraries\STM32F4xx_HAL\STM32F4xx_HAL_Driver\Src\stm32f4xx_hal_uart.o
                                                  D:\IOT\rtthread-v4.0\rt-thread\bsp\stm32\libraries\STM32F4xx_HAL\STM32F4xx_HAL_Driver\Src\stm32f4xx_hal_rcc_ex.o
                                                  D:\IOT\rtthread-v4.0\rt-thread\bsp\stm32\libraries\STM32F4xx_HAL\STM32F4xx_HAL_Driver\Src\stm32f4xx_hal_rcc.o
                                                  D:\IOT\rtthread-v4.0\rt-thread\bsp\stm32\libraries\STM32F4xx_HAL\STM32F4xx_HAL_Driver\Src\stm32f4xx_hal_pwr_ex.o
                                                  D:\IOT\rtthread-v4.0\rt-thread\bsp\stm32\libraries\STM32F4xx_HAL\STM32F4xx_HAL_Driver\Src\stm32f4xx_hal_dma.o
HAL_GetTickFreq                                   D:\IOT\rtthread-v4.0\rt-thread\bsp\stm32\libraries\STM32F4xx_HAL\STM32F4xx_HAL_Driver\Src\stm32f4xx_hal.o
HAL_GetTickPrio                                   D:\IOT\rtthread-v4.0\rt-thread\bsp\stm32\libraries\STM32F4xx_HAL\STM32F4xx_HAL_Driver\Src\stm32f4xx_hal.o
HAL_GetUIDw0                                      D:\IOT\rtthread-v4.0\rt-thread\bsp\stm32\libraries\STM32F4xx_HAL\STM32F4xx_HAL_Driver\Src\stm32f4xx_hal.o
HAL_GetUIDw1                                      D:\IOT\rtthread-v4.0\rt-thread\bsp\stm32\libraries\STM32F4xx_HAL\STM32F4xx_HAL_Driver\Src\stm32f4xx_hal.o
HAL_GetUIDw2                                      D:\IOT\rtthread-v4.0\rt-thread\bsp\stm32\libraries\STM32F4xx_HAL\STM32F4xx_HAL_Driver\Src\stm32f4xx_hal.o
HAL_HalfDuplex_EnableReceiver                     D:\IOT\rtthread-v4.0\rt-thread\bsp\stm32\libraries\STM32F4xx_HAL\STM32F4xx_HAL_Driver\Src\stm32f4xx_hal_uart.o
HAL_HalfDuplex_EnableTransmitter                  D:\IOT\rtthread-v4.0\rt-thread\bsp\stm32\libraries\STM32F4xx_HAL\STM32F4xx_HAL_Driver\Src\stm32f4xx_hal_uart.o
HAL_HalfDuplex_Init                               D:\IOT\rtthread-v4.0\rt-thread\bsp\stm32\libraries\STM32F4xx_HAL\STM32F4xx_HAL_Driver\Src\stm32f4xx_hal_uart.o
HAL_IncTick                                       D:\IOT\rtthread-v4.0\rt-thread\bsp\stm32\libraries\STM32F4xx_HAL\STM32F4xx_HAL_Driver\Src\stm32f4xx_hal.o
                                                  D:\IOT\rtthread-v4.0\rt-thread\bsp\stm32\libraries\HAL_Drivers\drv_common.o
HAL_Init                                          D:\IOT\rtthread-v4.0\rt-thread\bsp\stm32\libraries\STM32F4xx_HAL\STM32F4xx_HAL_Driver\Src\stm32f4xx_hal.o
                                                  D:\IOT\rtthread-v4.0\rt-thread\bsp\stm32\libraries\HAL_Drivers\drv_common.o
HAL_InitTick                                      D:\IOT\rtthread-v4.0\rt-thread\bsp\stm32\libraries\HAL_Drivers\drv_common.o
                                                  D:\IOT\rtthread-v4.0\rt-thread\bsp\stm32\libraries\STM32F4xx_HAL\STM32F4xx_HAL_Driver\Src\stm32f4xx_hal.o
                                                  D:\IOT\rtthread-v4.0\rt-thread\bsp\stm32\libraries\STM32F4xx_HAL\STM32F4xx_HAL_Driver\Src\stm32f4xx_hal_rcc_ex.o
                                                  D:\IOT\rtthread-v4.0\rt-thread\bsp\stm32\libraries\STM32F4xx_HAL\STM32F4xx_HAL_Driver\Src\stm32f4xx_hal_rcc.o
HAL_LIN_Init                                      D:\IOT\rtthread-v4.0\rt-thread\bsp\stm32\libraries\STM32F4xx_HAL\STM32F4xx_HAL_Driver\Src\stm32f4xx_hal_uart.o
HAL_LIN_SendBreak                                 D:\IOT\rtthread-v4.0\rt-thread\bsp\stm32\libraries\STM32F4xx_HAL\STM32F4xx_HAL_Driver\Src\stm32f4xx_hal_uart.o
HAL_MPU_ConfigRegion                              D:\IOT\rtthread-v4.0\rt-thread\bsp\stm32\libraries\STM32F4xx_HAL\STM32F4xx_HAL_Driver\Src\stm32f4xx_hal_cortex.o
HAL_MPU_Disable                                   D:\IOT\rtthread-v4.0\rt-thread\bsp\stm32\libraries\STM32F4xx_HAL\STM32F4xx_HAL_Driver\Src\stm32f4xx_hal_cortex.o
HAL_MPU_Enable                                    D:\IOT\rtthread-v4.0\rt-thread\bsp\stm32\libraries\STM32F4xx_HAL\STM32F4xx_HAL_Driver\Src\stm32f4xx_hal_cortex.o
HAL_MspDeInit                                     D:\IOT\rtthread-v4.0\rt-thread\bsp\stm32\libraries\STM32F4xx_HAL\STM32F4xx_HAL_Driver\Src\stm32f4xx_hal.o
HAL_MspInit                                       build\board\CubeMX_Config\Src\stm32f4xx_hal_msp.o
HAL_MultiProcessor_EnterMuteMode                  D:\IOT\rtthread-v4.0\rt-thread\bsp\stm32\libraries\STM32F4xx_HAL\STM32F4xx_HAL_Driver\Src\stm32f4xx_hal_uart.o
HAL_MultiProcessor_ExitMuteMode                   D:\IOT\rtthread-v4.0\rt-thread\bsp\stm32\libraries\STM32F4xx_HAL\STM32F4xx_HAL_Driver\Src\stm32f4xx_hal_uart.o
HAL_MultiProcessor_Init                           D:\IOT\rtthread-v4.0\rt-thread\bsp\stm32\libraries\STM32F4xx_HAL\STM32F4xx_HAL_Driver\Src\stm32f4xx_hal_uart.o
HAL_NVIC_ClearPendingIRQ                          D:\IOT\rtthread-v4.0\rt-thread\bsp\stm32\libraries\STM32F4xx_HAL\STM32F4xx_HAL_Driver\Src\stm32f4xx_hal_cortex.o
HAL_NVIC_DisableIRQ                               D:\IOT\rtthread-v4.0\rt-thread\bsp\stm32\libraries\STM32F4xx_HAL\STM32F4xx_HAL_Driver\Src\stm32f4xx_hal_cortex.o
                                                  D:\IOT\rtthread-v4.0\rt-thread\bsp\stm32\libraries\HAL_Drivers\drv_gpio.o
HAL_NVIC_EnableIRQ                                D:\IOT\rtthread-v4.0\rt-thread\bsp\stm32\libraries\STM32F4xx_HAL\STM32F4xx_HAL_Driver\Src\stm32f4xx_hal_cortex.o
                                                  D:\IOT\rtthread-v4.0\rt-thread\bsp\stm32\libraries\HAL_Drivers\drv_usart.o
                                                  D:\IOT\rtthread-v4.0\rt-thread\bsp\stm32\libraries\HAL_Drivers\drv_gpio.o
HAL_NVIC_GetActive                                D:\IOT\rtthread-v4.0\rt-thread\bsp\stm32\libraries\STM32F4xx_HAL\STM32F4xx_HAL_Driver\Src\stm32f4xx_hal_cortex.o
HAL_NVIC_GetPendingIRQ                            D:\IOT\rtthread-v4.0\rt-thread\bsp\stm32\libraries\STM32F4xx_HAL\STM32F4xx_HAL_Driver\Src\stm32f4xx_hal_cortex.o
HAL_NVIC_GetPriority                              D:\IOT\rtthread-v4.0\rt-thread\bsp\stm32\libraries\STM32F4xx_HAL\STM32F4xx_HAL_Driver\Src\stm32f4xx_hal_cortex.o
HAL_NVIC_GetPriorityGrouping                      D:\IOT\rtthread-v4.0\rt-thread\bsp\stm32\libraries\STM32F4xx_HAL\STM32F4xx_HAL_Driver\Src\stm32f4xx_hal_cortex.o
HAL_NVIC_SetPendingIRQ                            D:\IOT\rtthread-v4.0\rt-thread\bsp\stm32\libraries\STM32F4xx_HAL\STM32F4xx_HAL_Driver\Src\stm32f4xx_hal_cortex.o
HAL_NVIC_SetPriority                              D:\IOT\rtthread-v4.0\rt-thread\bsp\stm32\libraries\STM32F4xx_HAL\STM32F4xx_HAL_Driver\Src\stm32f4xx_hal_cortex.o
                                                  D:\IOT\rtthread-v4.0\rt-thread\bsp\stm32\libraries\HAL_Drivers\drv_common.o
                                                  D:\IOT\rtthread-v4.0\rt-thread\bsp\stm32\libraries\HAL_Drivers\drv_usart.o
                                                  D:\IOT\rtthread-v4.0\rt-thread\bsp\stm32\libraries\HAL_Drivers\drv_gpio.o
                                                  D:\IOT\rtthread-v4.0\rt-thread\bsp\stm32\libraries\STM32F4xx_HAL\STM32F4xx_HAL_Driver\Src\stm32f4xx_hal.o
HAL_NVIC_SetPriorityGrouping                      D:\IOT\rtthread-v4.0\rt-thread\bsp\stm32\libraries\STM32F4xx_HAL\STM32F4xx_HAL_Driver\Src\stm32f4xx_hal_cortex.o
                                                  D:\IOT\rtthread-v4.0\rt-thread\bsp\stm32\libraries\STM32F4xx_HAL\STM32F4xx_HAL_Driver\Src\stm32f4xx_hal.o
                                                  build\board\CubeMX_Config\Src\stm32f4xx_hal_msp.o
HAL_NVIC_SystemReset                              D:\IOT\rtthread-v4.0\rt-thread\bsp\stm32\libraries\STM32F4xx_HAL\STM32F4xx_HAL_Driver\Src\stm32f4xx_hal_cortex.o
HAL_PWREx_ControlVoltageScaling                   D:\IOT\rtthread-v4.0\rt-thread\bsp\stm32\libraries\STM32F4xx_HAL\STM32F4xx_HAL_Driver\Src\stm32f4xx_hal_pwr_ex.o
HAL_PWREx_DisableBkUpReg                          D:\IOT\rtthread-v4.0\rt-thread\bsp\stm32\libraries\STM32F4xx_HAL\STM32F4xx_HAL_Driver\Src\stm32f4xx_hal_pwr_ex.o
HAL_PWREx_DisableFlashPowerDown                   D:\IOT\rtthread-v4.0\rt-thread\bsp\stm32\libraries\STM32F4xx_HAL\STM32F4xx_HAL_Driver\Src\stm32f4xx_hal_pwr_ex.o
HAL_PWREx_EnableBkUpReg                           D:\IOT\rtthread-v4.0\rt-thread\bsp\stm32\libraries\STM32F4xx_HAL\STM32F4xx_HAL_Driver\Src\stm32f4xx_hal_pwr_ex.o
HAL_PWREx_EnableFlashPowerDown                    D:\IOT\rtthread-v4.0\rt-thread\bsp\stm32\libraries\STM32F4xx_HAL\STM32F4xx_HAL_Driver\Src\stm32f4xx_hal_pwr_ex.o
HAL_PWREx_GetVoltageRange                         D:\IOT\rtthread-v4.0\rt-thread\bsp\stm32\libraries\STM32F4xx_HAL\STM32F4xx_HAL_Driver\Src\stm32f4xx_hal_pwr_ex.o
HAL_PWR_ConfigPVD                                 D:\IOT\rtthread-v4.0\rt-thread\bsp\stm32\libraries\STM32F4xx_HAL\STM32F4xx_HAL_Driver\Src\stm32f4xx_hal_pwr.o
HAL_PWR_DeInit                                    D:\IOT\rtthread-v4.0\rt-thread\bsp\stm32\libraries\STM32F4xx_HAL\STM32F4xx_HAL_Driver\Src\stm32f4xx_hal_pwr.o
HAL_PWR_DisableBkUpAccess                         D:\IOT\rtthread-v4.0\rt-thread\bsp\stm32\libraries\STM32F4xx_HAL\STM32F4xx_HAL_Driver\Src\stm32f4xx_hal_pwr.o
HAL_PWR_DisablePVD                                D:\IOT\rtthread-v4.0\rt-thread\bsp\stm32\libraries\STM32F4xx_HAL\STM32F4xx_HAL_Driver\Src\stm32f4xx_hal_pwr.o
HAL_PWR_DisableSEVOnPend                          D:\IOT\rtthread-v4.0\rt-thread\bsp\stm32\libraries\STM32F4xx_HAL\STM32F4xx_HAL_Driver\Src\stm32f4xx_hal_pwr.o
HAL_PWR_DisableSleepOnExit                        D:\IOT\rtthread-v4.0\rt-thread\bsp\stm32\libraries\STM32F4xx_HAL\STM32F4xx_HAL_Driver\Src\stm32f4xx_hal_pwr.o
HAL_PWR_DisableWakeUpPin                          D:\IOT\rtthread-v4.0\rt-thread\bsp\stm32\libraries\STM32F4xx_HAL\STM32F4xx_HAL_Driver\Src\stm32f4xx_hal_pwr.o
HAL_PWR_EnableBkUpAccess                          D:\IOT\rtthread-v4.0\rt-thread\bsp\stm32\libraries\STM32F4xx_HAL\STM32F4xx_HAL_Driver\Src\stm32f4xx_hal_pwr.o
HAL_PWR_EnablePVD                                 D:\IOT\rtthread-v4.0\rt-thread\bsp\stm32\libraries\STM32F4xx_HAL\STM32F4xx_HAL_Driver\Src\stm32f4xx_hal_pwr.o
HAL_PWR_EnableSEVOnPend                           D:\IOT\rtthread-v4.0\rt-thread\bsp\stm32\libraries\STM32F4xx_HAL\STM32F4xx_HAL_Driver\Src\stm32f4xx_hal_pwr.o
HAL_PWR_EnableSleepOnExit                         D:\IOT\rtthread-v4.0\rt-thread\bsp\stm32\libraries\STM32F4xx_HAL\STM32F4xx_HAL_Driver\Src\stm32f4xx_hal_pwr.o
HAL_PWR_EnableWakeUpPin                           D:\IOT\rtthread-v4.0\rt-thread\bsp\stm32\libraries\STM32F4xx_HAL\STM32F4xx_HAL_Driver\Src\stm32f4xx_hal_pwr.o
HAL_PWR_EnterSLEEPMode                            D:\IOT\rtthread-v4.0\rt-thread\bsp\stm32\libraries\STM32F4xx_HAL\STM32F4xx_HAL_Driver\Src\stm32f4xx_hal_pwr.o
HAL_PWR_EnterSTANDBYMode                          D:\IOT\rtthread-v4.0\rt-thread\bsp\stm32\libraries\STM32F4xx_HAL\STM32F4xx_HAL_Driver\Src\stm32f4xx_hal_pwr.o
HAL_PWR_EnterSTOPMode                             D:\IOT\rtthread-v4.0\rt-thread\bsp\stm32\libraries\STM32F4xx_HAL\STM32F4xx_HAL_Driver\Src\stm32f4xx_hal_pwr.o
HAL_PWR_PVDCallback                               D:\IOT\rtthread-v4.0\rt-thread\bsp\stm32\libraries\STM32F4xx_HAL\STM32F4xx_HAL_Driver\Src\stm32f4xx_hal_pwr.o
HAL_PWR_PVD_IRQHandler                            D:\IOT\rtthread-v4.0\rt-thread\bsp\stm32\libraries\STM32F4xx_HAL\STM32F4xx_HAL_Driver\Src\stm32f4xx_hal_pwr.o
HAL_RCCEx_DisablePLLI2S                           D:\IOT\rtthread-v4.0\rt-thread\bsp\stm32\libraries\STM32F4xx_HAL\STM32F4xx_HAL_Driver\Src\stm32f4xx_hal_rcc_ex.o
HAL_RCCEx_EnablePLLI2S                            D:\IOT\rtthread-v4.0\rt-thread\bsp\stm32\libraries\STM32F4xx_HAL\STM32F4xx_HAL_Driver\Src\stm32f4xx_hal_rcc_ex.o
HAL_RCCEx_GetPeriphCLKConfig                      D:\IOT\rtthread-v4.0\rt-thread\bsp\stm32\libraries\STM32F4xx_HAL\STM32F4xx_HAL_Driver\Src\stm32f4xx_hal_rcc_ex.o
HAL_RCCEx_GetPeriphCLKFreq                        D:\IOT\rtthread-v4.0\rt-thread\bsp\stm32\libraries\STM32F4xx_HAL\STM32F4xx_HAL_Driver\Src\stm32f4xx_hal_rcc_ex.o
HAL_RCCEx_PeriphCLKConfig                         D:\IOT\rtthread-v4.0\rt-thread\bsp\stm32\libraries\STM32F4xx_HAL\STM32F4xx_HAL_Driver\Src\stm32f4xx_hal_rcc_ex.o
HAL_RCC_CSSCallback                               D:\IOT\rtthread-v4.0\rt-thread\bsp\stm32\libraries\STM32F4xx_HAL\STM32F4xx_HAL_Driver\Src\stm32f4xx_hal_rcc.o
HAL_RCC_ClockConfig                               D:\IOT\rtthread-v4.0\rt-thread\bsp\stm32\libraries\STM32F4xx_HAL\STM32F4xx_HAL_Driver\Src\stm32f4xx_hal_rcc.o
                                                  build\board\board.o
HAL_RCC_DeInit                                    D:\IOT\rtthread-v4.0\rt-thread\bsp\stm32\libraries\STM32F4xx_HAL\STM32F4xx_HAL_Driver\Src\stm32f4xx_hal_rcc_ex.o
                                                  D:\IOT\rtthread-v4.0\rt-thread\bsp\stm32\libraries\STM32F4xx_HAL\STM32F4xx_HAL_Driver\Src\stm32f4xx_hal_rcc.o
HAL_RCC_DisableCSS                                D:\IOT\rtthread-v4.0\rt-thread\bsp\stm32\libraries\STM32F4xx_HAL\STM32F4xx_HAL_Driver\Src\stm32f4xx_hal_rcc.o
HAL_RCC_EnableCSS                                 D:\IOT\rtthread-v4.0\rt-thread\bsp\stm32\libraries\STM32F4xx_HAL\STM32F4xx_HAL_Driver\Src\stm32f4xx_hal_rcc.o
HAL_RCC_GetClockConfig                            D:\IOT\rtthread-v4.0\rt-thread\bsp\stm32\libraries\STM32F4xx_HAL\STM32F4xx_HAL_Driver\Src\stm32f4xx_hal_rcc.o
HAL_RCC_GetHCLKFreq                               D:\IOT\rtthread-v4.0\rt-thread\bsp\stm32\libraries\STM32F4xx_HAL\STM32F4xx_HAL_Driver\Src\stm32f4xx_hal_rcc.o
                                                  D:\IOT\rtthread-v4.0\rt-thread\bsp\stm32\libraries\HAL_Drivers\drv_common.o
HAL_RCC_GetOscConfig                              D:\IOT\rtthread-v4.0\rt-thread\bsp\stm32\libraries\STM32F4xx_HAL\STM32F4xx_HAL_Driver\Src\stm32f4xx_hal_rcc.o
HAL_RCC_GetPCLK1Freq                              D:\IOT\rtthread-v4.0\rt-thread\bsp\stm32\libraries\STM32F4xx_HAL\STM32F4xx_HAL_Driver\Src\stm32f4xx_hal_rcc.o
                                                  D:\IOT\rtthread-v4.0\rt-thread\bsp\stm32\libraries\STM32F4xx_HAL\STM32F4xx_HAL_Driver\Src\stm32f4xx_hal_uart.o
HAL_RCC_GetPCLK2Freq                              D:\IOT\rtthread-v4.0\rt-thread\bsp\stm32\libraries\STM32F4xx_HAL\STM32F4xx_HAL_Driver\Src\stm32f4xx_hal_rcc.o
                                                  D:\IOT\rtthread-v4.0\rt-thread\bsp\stm32\libraries\STM32F4xx_HAL\STM32F4xx_HAL_Driver\Src\stm32f4xx_hal_uart.o
HAL_RCC_GetSysClockFreq                           D:\IOT\rtthread-v4.0\rt-thread\bsp\stm32\libraries\STM32F4xx_HAL\STM32F4xx_HAL_Driver\Src\stm32f4xx_hal_rcc.o
HAL_RCC_MCOConfig                                 D:\IOT\rtthread-v4.0\rt-thread\bsp\stm32\libraries\STM32F4xx_HAL\STM32F4xx_HAL_Driver\Src\stm32f4xx_hal_rcc.o
HAL_RCC_NMI_IRQHandler                            D:\IOT\rtthread-v4.0\rt-thread\bsp\stm32\libraries\STM32F4xx_HAL\STM32F4xx_HAL_Driver\Src\stm32f4xx_hal_rcc.o
HAL_RCC_OscConfig                                 D:\IOT\rtthread-v4.0\rt-thread\bsp\stm32\libraries\STM32F4xx_HAL\STM32F4xx_HAL_Driver\Src\stm32f4xx_hal_rcc.o
                                                  build\board\board.o
HAL_ResumeTick                                    D:\IOT\rtthread-v4.0\rt-thread\bsp\stm32\libraries\HAL_Drivers\drv_common.o
                                                  D:\IOT\rtthread-v4.0\rt-thread\bsp\stm32\libraries\STM32F4xx_HAL\STM32F4xx_HAL_Driver\Src\stm32f4xx_hal.o
HAL_SPI_MspDeInit                                 build\board\CubeMX_Config\Src\stm32f4xx_hal_msp.o
HAL_SPI_MspInit                                   build\board\CubeMX_Config\Src\stm32f4xx_hal_msp.o
HAL_SYSTICK_CLKSourceConfig                       D:\IOT\rtthread-v4.0\rt-thread\bsp\stm32\libraries\STM32F4xx_HAL\STM32F4xx_HAL_Driver\Src\stm32f4xx_hal_cortex.o
                                                  D:\IOT\rtthread-v4.0\rt-thread\bsp\stm32\libraries\HAL_Drivers\drv_common.o
HAL_SYSTICK_Callback                              D:\IOT\rtthread-v4.0\rt-thread\bsp\stm32\libraries\STM32F4xx_HAL\STM32F4xx_HAL_Driver\Src\stm32f4xx_hal_cortex.o
HAL_SYSTICK_Config                                D:\IOT\rtthread-v4.0\rt-thread\bsp\stm32\libraries\STM32F4xx_HAL\STM32F4xx_HAL_Driver\Src\stm32f4xx_hal_cortex.o
                                                  D:\IOT\rtthread-v4.0\rt-thread\bsp\stm32\libraries\HAL_Drivers\drv_common.o
                                                  D:\IOT\rtthread-v4.0\rt-thread\bsp\stm32\libraries\STM32F4xx_HAL\STM32F4xx_HAL_Driver\Src\stm32f4xx_hal.o
HAL_SYSTICK_IRQHandler                            D:\IOT\rtthread-v4.0\rt-thread\bsp\stm32\libraries\STM32F4xx_HAL\STM32F4xx_HAL_Driver\Src\stm32f4xx_hal_cortex.o
HAL_SetTickFreq                                   D:\IOT\rtthread-v4.0\rt-thread\bsp\stm32\libraries\STM32F4xx_HAL\STM32F4xx_HAL_Driver\Src\stm32f4xx_hal.o
HAL_SuspendTick                                   D:\IOT\rtthread-v4.0\rt-thread\bsp\stm32\libraries\HAL_Drivers\drv_common.o
                                                  D:\IOT\rtthread-v4.0\rt-thread\bsp\stm32\libraries\STM32F4xx_HAL\STM32F4xx_HAL_Driver\Src\stm32f4xx_hal.o
HAL_UART_Abort                                    D:\IOT\rtthread-v4.0\rt-thread\bsp\stm32\libraries\STM32F4xx_HAL\STM32F4xx_HAL_Driver\Src\stm32f4xx_hal_uart.o
HAL_UART_AbortCpltCallback                        D:\IOT\rtthread-v4.0\rt-thread\bsp\stm32\libraries\STM32F4xx_HAL\STM32F4xx_HAL_Driver\Src\stm32f4xx_hal_uart.o
HAL_UART_AbortReceive                             D:\IOT\rtthread-v4.0\rt-thread\bsp\stm32\libraries\STM32F4xx_HAL\STM32F4xx_HAL_Driver\Src\stm32f4xx_hal_uart.o
HAL_UART_AbortReceiveCpltCallback                 D:\IOT\rtthread-v4.0\rt-thread\bsp\stm32\libraries\STM32F4xx_HAL\STM32F4xx_HAL_Driver\Src\stm32f4xx_hal_uart.o
HAL_UART_AbortReceive_IT                          D:\IOT\rtthread-v4.0\rt-thread\bsp\stm32\libraries\STM32F4xx_HAL\STM32F4xx_HAL_Driver\Src\stm32f4xx_hal_uart.o
HAL_UART_AbortTransmit                            D:\IOT\rtthread-v4.0\rt-thread\bsp\stm32\libraries\STM32F4xx_HAL\STM32F4xx_HAL_Driver\Src\stm32f4xx_hal_uart.o
HAL_UART_AbortTransmitCpltCallback                D:\IOT\rtthread-v4.0\rt-thread\bsp\stm32\libraries\STM32F4xx_HAL\STM32F4xx_HAL_Driver\Src\stm32f4xx_hal_uart.o
HAL_UART_AbortTransmit_IT                         D:\IOT\rtthread-v4.0\rt-thread\bsp\stm32\libraries\STM32F4xx_HAL\STM32F4xx_HAL_Driver\Src\stm32f4xx_hal_uart.o
HAL_UART_Abort_IT                                 D:\IOT\rtthread-v4.0\rt-thread\bsp\stm32\libraries\STM32F4xx_HAL\STM32F4xx_HAL_Driver\Src\stm32f4xx_hal_uart.o
HAL_UART_DMAPause                                 D:\IOT\rtthread-v4.0\rt-thread\bsp\stm32\libraries\STM32F4xx_HAL\STM32F4xx_HAL_Driver\Src\stm32f4xx_hal_uart.o
HAL_UART_DMAResume                                D:\IOT\rtthread-v4.0\rt-thread\bsp\stm32\libraries\STM32F4xx_HAL\STM32F4xx_HAL_Driver\Src\stm32f4xx_hal_uart.o
HAL_UART_DMAStop                                  D:\IOT\rtthread-v4.0\rt-thread\bsp\stm32\libraries\STM32F4xx_HAL\STM32F4xx_HAL_Driver\Src\stm32f4xx_hal_uart.o
HAL_UART_DeInit                                   D:\IOT\rtthread-v4.0\rt-thread\bsp\stm32\libraries\STM32F4xx_HAL\STM32F4xx_HAL_Driver\Src\stm32f4xx_hal_uart.o
HAL_UART_ErrorCallback                            D:\IOT\rtthread-v4.0\rt-thread\bsp\stm32\libraries\HAL_Drivers\drv_usart.o
                                                  D:\IOT\rtthread-v4.0\rt-thread\bsp\stm32\libraries\STM32F4xx_HAL\STM32F4xx_HAL_Driver\Src\stm32f4xx_hal_uart.o
HAL_UART_GetError                                 D:\IOT\rtthread-v4.0\rt-thread\bsp\stm32\libraries\STM32F4xx_HAL\STM32F4xx_HAL_Driver\Src\stm32f4xx_hal_uart.o
HAL_UART_GetState                                 D:\IOT\rtthread-v4.0\rt-thread\bsp\stm32\libraries\STM32F4xx_HAL\STM32F4xx_HAL_Driver\Src\stm32f4xx_hal_uart.o
HAL_UART_IRQHandler                               D:\IOT\rtthread-v4.0\rt-thread\bsp\stm32\libraries\STM32F4xx_HAL\STM32F4xx_HAL_Driver\Src\stm32f4xx_hal_uart.o
                                                  D:\IOT\rtthread-v4.0\rt-thread\bsp\stm32\libraries\HAL_Drivers\drv_usart.o
HAL_UART_Init                                     D:\IOT\rtthread-v4.0\rt-thread\bsp\stm32\libraries\STM32F4xx_HAL\STM32F4xx_HAL_Driver\Src\stm32f4xx_hal_uart.o
                                                  D:\IOT\rtthread-v4.0\rt-thread\bsp\stm32\libraries\HAL_Drivers\drv_usart.o
HAL_UART_MspDeInit                                build\board\CubeMX_Config\Src\stm32f4xx_hal_msp.o
HAL_UART_MspInit                                  build\board\CubeMX_Config\Src\stm32f4xx_hal_msp.o
HAL_UART_Receive                                  D:\IOT\rtthread-v4.0\rt-thread\bsp\stm32\libraries\STM32F4xx_HAL\STM32F4xx_HAL_Driver\Src\stm32f4xx_hal_uart.o
HAL_UART_Receive_DMA                              D:\IOT\rtthread-v4.0\rt-thread\bsp\stm32\libraries\STM32F4xx_HAL\STM32F4xx_HAL_Driver\Src\stm32f4xx_hal_uart.o
                                                  D:\IOT\rtthread-v4.0\rt-thread\bsp\stm32\libraries\HAL_Drivers\drv_usart.o
HAL_UART_Receive_IT                               D:\IOT\rtthread-v4.0\rt-thread\bsp\stm32\libraries\STM32F4xx_HAL\STM32F4xx_HAL_Driver\Src\stm32f4xx_hal_uart.o
HAL_UART_RxCpltCallback                           D:\IOT\rtthread-v4.0\rt-thread\bsp\stm32\libraries\HAL_Drivers\drv_usart.o
                                                  D:\IOT\rtthread-v4.0\rt-thread\bsp\stm32\libraries\STM32F4xx_HAL\STM32F4xx_HAL_Driver\Src\stm32f4xx_hal_uart.o
HAL_UART_RxHalfCpltCallback                       D:\IOT\rtthread-v4.0\rt-thread\bsp\stm32\libraries\HAL_Drivers\drv_usart.o
                                                  D:\IOT\rtthread-v4.0\rt-thread\bsp\stm32\libraries\STM32F4xx_HAL\STM32F4xx_HAL_Driver\Src\stm32f4xx_hal_uart.o
HAL_UART_Transmit                                 D:\IOT\rtthread-v4.0\rt-thread\bsp\stm32\libraries\STM32F4xx_HAL\STM32F4xx_HAL_Driver\Src\stm32f4xx_hal_uart.o
HAL_UART_Transmit_DMA                             D:\IOT\rtthread-v4.0\rt-thread\bsp\stm32\libraries\STM32F4xx_HAL\STM32F4xx_HAL_Driver\Src\stm32f4xx_hal_uart.o
                                                  D:\IOT\rtthread-v4.0\rt-thread\bsp\stm32\libraries\HAL_Drivers\drv_usart.o
HAL_UART_Transmit_IT                              D:\IOT\rtthread-v4.0\rt-thread\bsp\stm32\libraries\STM32F4xx_HAL\STM32F4xx_HAL_Driver\Src\stm32f4xx_hal_uart.o
HAL_UART_TxCpltCallback                           D:\IOT\rtthread-v4.0\rt-thread\bsp\stm32\libraries\HAL_Drivers\drv_usart.o
                                                  D:\IOT\rtthread-v4.0\rt-thread\bsp\stm32\libraries\STM32F4xx_HAL\STM32F4xx_HAL_Driver\Src\stm32f4xx_hal_uart.o
HAL_UART_TxHalfCpltCallback                       D:\IOT\rtthread-v4.0\rt-thread\bsp\stm32\libraries\STM32F4xx_HAL\STM32F4xx_HAL_Driver\Src\stm32f4xx_hal_uart.o
HASH_RNG_IRQHandler                               D:\IOT\rtthread-v4.0\rt-thread\bsp\stm32\libraries\STM32F4xx_HAL\CMSIS\Device\ST\STM32F4xx\Source\Templates\gcc\startup_stm32f407xx.o
HardFault_Handler                                 build\kernel\libcpu\arm\cortex-m4\context_gcc.o
                                                  D:\IOT\rtthread-v4.0\rt-thread\bsp\stm32\libraries\STM32F4xx_HAL\CMSIS\Device\ST\STM32F4xx\Source\Templates\gcc\startup_stm32f407xx.o
I2C1_ER_IRQHandler                                D:\IOT\rtthread-v4.0\rt-thread\bsp\stm32\libraries\STM32F4xx_HAL\CMSIS\Device\ST\STM32F4xx\Source\Templates\gcc\startup_stm32f407xx.o
I2C1_EV_IRQHandler                                D:\IOT\rtthread-v4.0\rt-thread\bsp\stm32\libraries\STM32F4xx_HAL\CMSIS\Device\ST\STM32F4xx\Source\Templates\gcc\startup_stm32f407xx.o
I2C2_ER_IRQHandler                                D:\IOT\rtthread-v4.0\rt-thread\bsp\stm32\libraries\STM32F4xx_HAL\CMSIS\Device\ST\STM32F4xx\Source\Templates\gcc\startup_stm32f407xx.o
I2C2_EV_IRQHandler                                D:\IOT\rtthread-v4.0\rt-thread\bsp\stm32\libraries\STM32F4xx_HAL\CMSIS\Device\ST\STM32F4xx\Source\Templates\gcc\startup_stm32f407xx.o
I2C3_ER_IRQHandler                                D:\IOT\rtthread-v4.0\rt-thread\bsp\stm32\libraries\STM32F4xx_HAL\CMSIS\Device\ST\STM32F4xx\Source\Templates\gcc\startup_stm32f407xx.o
I2C3_EV_IRQHandler                                D:\IOT\rtthread-v4.0\rt-thread\bsp\stm32\libraries\STM32F4xx_HAL\CMSIS\Device\ST\STM32F4xx\Source\Templates\gcc\startup_stm32f407xx.o
MemManage_Handler                                 D:\IOT\rtthread-v4.0\rt-thread\bsp\stm32\libraries\STM32F4xx_HAL\CMSIS\Device\ST\STM32F4xx\Source\Templates\gcc\startup_stm32f407xx.o
NMI_Handler                                       D:\IOT\rtthread-v4.0\rt-thread\bsp\stm32\libraries\STM32F4xx_HAL\CMSIS\Device\ST\STM32F4xx\Source\Templates\gcc\startup_stm32f407xx.o
OTG_FS_IRQHandler                                 D:\IOT\rtthread-v4.0\rt-thread\bsp\stm32\libraries\STM32F4xx_HAL\CMSIS\Device\ST\STM32F4xx\Source\Templates\gcc\startup_stm32f407xx.o
OTG_FS_WKUP_IRQHandler                            D:\IOT\rtthread-v4.0\rt-thread\bsp\stm32\libraries\STM32F4xx_HAL\CMSIS\Device\ST\STM32F4xx\Source\Templates\gcc\startup_stm32f407xx.o
OTG_HS_EP1_IN_IRQHandler                          D:\IOT\rtthread-v4.0\rt-thread\bsp\stm32\libraries\STM32F4xx_HAL\CMSIS\Device\ST\STM32F4xx\Source\Templates\gcc\startup_stm32f407xx.o
OTG_HS_EP1_OUT_IRQHandler                         D:\IOT\rtthread-v4.0\rt-thread\bsp\stm32\libraries\STM32F4xx_HAL\CMSIS\Device\ST\STM32F4xx\Source\Templates\gcc\startup_stm32f407xx.o
OTG_HS_IRQHandler                                 D:\IOT\rtthread-v4.0\rt-thread\bsp\stm32\libraries\STM32F4xx_HAL\CMSIS\Device\ST\STM32F4xx\Source\Templates\gcc\startup_stm32f407xx.o
OTG_HS_WKUP_IRQHandler                            D:\IOT\rtthread-v4.0\rt-thread\bsp\stm32\libraries\STM32F4xx_HAL\CMSIS\Device\ST\STM32F4xx\Source\Templates\gcc\startup_stm32f407xx.o
PVD_IRQHandler                                    D:\IOT\rtthread-v4.0\rt-thread\bsp\stm32\libraries\STM32F4xx_HAL\CMSIS\Device\ST\STM32F4xx\Source\Templates\gcc\startup_stm32f407xx.o
PendSV_Handler                                    build\kernel\libcpu\arm\cortex-m4\context_gcc.o
                                                  D:\IOT\rtthread-v4.0\rt-thread\bsp\stm32\libraries\STM32F4xx_HAL\CMSIS\Device\ST\STM32F4xx\Source\Templates\gcc\startup_stm32f407xx.o
RCC_IRQHandler                                    D:\IOT\rtthread-v4.0\rt-thread\bsp\stm32\libraries\STM32F4xx_HAL\CMSIS\Device\ST\STM32F4xx\Source\Templates\gcc\startup_stm32f407xx.o
RTC_Alarm_IRQHandler                              D:\IOT\rtthread-v4.0\rt-thread\bsp\stm32\libraries\STM32F4xx_HAL\CMSIS\Device\ST\STM32F4xx\Source\Templates\gcc\startup_stm32f407xx.o
RTC_WKUP_IRQHandler                               D:\IOT\rtthread-v4.0\rt-thread\bsp\stm32\libraries\STM32F4xx_HAL\CMSIS\Device\ST\STM32F4xx\Source\Templates\gcc\startup_stm32f407xx.o
Reset_Handler                                     D:\IOT\rtthread-v4.0\rt-thread\bsp\stm32\libraries\STM32F4xx_HAL\CMSIS\Device\ST\STM32F4xx\Source\Templates\gcc\startup_stm32f407xx.o
SDIO_IRQHandler                                   D:\IOT\rtthread-v4.0\rt-thread\bsp\stm32\libraries\STM32F4xx_HAL\CMSIS\Device\ST\STM32F4xx\Source\Templates\gcc\startup_stm32f407xx.o
SPI1_IRQHandler                                   D:\IOT\rtthread-v4.0\rt-thread\bsp\stm32\libraries\STM32F4xx_HAL\CMSIS\Device\ST\STM32F4xx\Source\Templates\gcc\startup_stm32f407xx.o
SPI2_IRQHandler                                   D:\IOT\rtthread-v4.0\rt-thread\bsp\stm32\libraries\STM32F4xx_HAL\CMSIS\Device\ST\STM32F4xx\Source\Templates\gcc\startup_stm32f407xx.o
SPI3_IRQHandler                                   D:\IOT\rtthread-v4.0\rt-thread\bsp\stm32\libraries\STM32F4xx_HAL\CMSIS\Device\ST\STM32F4xx\Source\Templates\gcc\startup_stm32f407xx.o
SVC_Handler                                       D:\IOT\rtthread-v4.0\rt-thread\bsp\stm32\libraries\STM32F4xx_HAL\CMSIS\Device\ST\STM32F4xx\Source\Templates\gcc\startup_stm32f407xx.o
SysTick_Handler                                   D:\IOT\rtthread-v4.0\rt-thread\bsp\stm32\libraries\HAL_Drivers\drv_common.o
                                                  D:\IOT\rtthread-v4.0\rt-thread\bsp\stm32\libraries\STM32F4xx_HAL\CMSIS\Device\ST\STM32F4xx\Source\Templates\gcc\startup_stm32f407xx.o
SystemClock_Config                                build\board\board.o
                                                  D:\IOT\rtthread-v4.0\rt-thread\bsp\stm32\libraries\HAL_Drivers\drv_common.o
SystemCoreClock                                   D:\IOT\rtthread-v4.0\rt-thread\bsp\stm32\libraries\STM32F4xx_HAL\CMSIS\Device\ST\STM32F4xx\Source\Templates\system_stm32f4xx.o
                                                  D:\IOT\rtthread-v4.0\rt-thread\bsp\stm32\libraries\HAL_Drivers\drv_common.o
                                                  D:\IOT\rtthread-v4.0\rt-thread\bsp\stm32\libraries\STM32F4xx_HAL\STM32F4xx_HAL_Driver\Src\stm32f4xx_hal_rcc_ex.o
                                                  D:\IOT\rtthread-v4.0\rt-thread\bsp\stm32\libraries\STM32F4xx_HAL\STM32F4xx_HAL_Driver\Src\stm32f4xx_hal_rcc.o
                                                  D:\IOT\rtthread-v4.0\rt-thread\bsp\stm32\libraries\STM32F4xx_HAL\STM32F4xx_HAL_Driver\Src\stm32f4xx_hal_dma.o
                                                  D:\IOT\rtthread-v4.0\rt-thread\bsp\stm32\libraries\STM32F4xx_HAL\STM32F4xx_HAL_Driver\Src\stm32f4xx_hal.o
SystemCoreClockUpdate                             D:\IOT\rtthread-v4.0\rt-thread\bsp\stm32\libraries\STM32F4xx_HAL\CMSIS\Device\ST\STM32F4xx\Source\Templates\system_stm32f4xx.o
SystemInit                                        D:\IOT\rtthread-v4.0\rt-thread\bsp\stm32\libraries\STM32F4xx_HAL\CMSIS\Device\ST\STM32F4xx\Source\Templates\system_stm32f4xx.o
                                                  D:\IOT\rtthread-v4.0\rt-thread\bsp\stm32\libraries\STM32F4xx_HAL\CMSIS\Device\ST\STM32F4xx\Source\Templates\gcc\startup_stm32f407xx.o
TAMP_STAMP_IRQHandler                             D:\IOT\rtthread-v4.0\rt-thread\bsp\stm32\libraries\STM32F4xx_HAL\CMSIS\Device\ST\STM32F4xx\Source\Templates\gcc\startup_stm32f407xx.o
TIM1_BRK_TIM9_IRQHandler                          D:\IOT\rtthread-v4.0\rt-thread\bsp\stm32\libraries\STM32F4xx_HAL\CMSIS\Device\ST\STM32F4xx\Source\Templates\gcc\startup_stm32f407xx.o
TIM1_CC_IRQHandler                                D:\IOT\rtthread-v4.0\rt-thread\bsp\stm32\libraries\STM32F4xx_HAL\CMSIS\Device\ST\STM32F4xx\Source\Templates\gcc\startup_stm32f407xx.o
TIM1_TRG_COM_TIM11_IRQHandler                     D:\IOT\rtthread-v4.0\rt-thread\bsp\stm32\libraries\STM32F4xx_HAL\CMSIS\Device\ST\STM32F4xx\Source\Templates\gcc\startup_stm32f407xx.o
TIM1_UP_TIM10_IRQHandler                          D:\IOT\rtthread-v4.0\rt-thread\bsp\stm32\libraries\STM32F4xx_HAL\CMSIS\Device\ST\STM32F4xx\Source\Templates\gcc\startup_stm32f407xx.o
TIM2_IRQHandler                                   D:\IOT\rtthread-v4.0\rt-thread\bsp\stm32\libraries\STM32F4xx_HAL\CMSIS\Device\ST\STM32F4xx\Source\Templates\gcc\startup_stm32f407xx.o
TIM3_IRQHandler                                   D:\IOT\rtthread-v4.0\rt-thread\bsp\stm32\libraries\STM32F4xx_HAL\CMSIS\Device\ST\STM32F4xx\Source\Templates\gcc\startup_stm32f407xx.o
TIM4_IRQHandler                                   D:\IOT\rtthread-v4.0\rt-thread\bsp\stm32\libraries\STM32F4xx_HAL\CMSIS\Device\ST\STM32F4xx\Source\Templates\gcc\startup_stm32f407xx.o
TIM5_IRQHandler                                   D:\IOT\rtthread-v4.0\rt-thread\bsp\stm32\libraries\STM32F4xx_HAL\CMSIS\Device\ST\STM32F4xx\Source\Templates\gcc\startup_stm32f407xx.o
TIM6_DAC_IRQHandler                               D:\IOT\rtthread-v4.0\rt-thread\bsp\stm32\libraries\STM32F4xx_HAL\CMSIS\Device\ST\STM32F4xx\Source\Templates\gcc\startup_stm32f407xx.o
TIM7_IRQHandler                                   D:\IOT\rtthread-v4.0\rt-thread\bsp\stm32\libraries\STM32F4xx_HAL\CMSIS\Device\ST\STM32F4xx\Source\Templates\gcc\startup_stm32f407xx.o
TIM8_BRK_TIM12_IRQHandler                         D:\IOT\rtthread-v4.0\rt-thread\bsp\stm32\libraries\STM32F4xx_HAL\CMSIS\Device\ST\STM32F4xx\Source\Templates\gcc\startup_stm32f407xx.o
TIM8_CC_IRQHandler                                D:\IOT\rtthread-v4.0\rt-thread\bsp\stm32\libraries\STM32F4xx_HAL\CMSIS\Device\ST\STM32F4xx\Source\Templates\gcc\startup_stm32f407xx.o
TIM8_TRG_COM_TIM14_IRQHandler                     D:\IOT\rtthread-v4.0\rt-thread\bsp\stm32\libraries\STM32F4xx_HAL\CMSIS\Device\ST\STM32F4xx\Source\Templates\gcc\startup_stm32f407xx.o
TIM8_UP_TIM13_IRQHandler                          D:\IOT\rtthread-v4.0\rt-thread\bsp\stm32\libraries\STM32F4xx_HAL\CMSIS\Device\ST\STM32F4xx\Source\Templates\gcc\startup_stm32f407xx.o
UART4_IRQHandler                                  D:\IOT\rtthread-v4.0\rt-thread\bsp\stm32\libraries\STM32F4xx_HAL\CMSIS\Device\ST\STM32F4xx\Source\Templates\gcc\startup_stm32f407xx.o
UART5_IRQHandler                                  D:\IOT\rtthread-v4.0\rt-thread\bsp\stm32\libraries\STM32F4xx_HAL\CMSIS\Device\ST\STM32F4xx\Source\Templates\gcc\startup_stm32f407xx.o
USART1_IRQHandler                                 D:\IOT\rtthread-v4.0\rt-thread\bsp\stm32\libraries\HAL_Drivers\drv_usart.o
                                                  D:\IOT\rtthread-v4.0\rt-thread\bsp\stm32\libraries\STM32F4xx_HAL\CMSIS\Device\ST\STM32F4xx\Source\Templates\gcc\startup_stm32f407xx.o
USART2_IRQHandler                                 D:\IOT\rtthread-v4.0\rt-thread\bsp\stm32\libraries\STM32F4xx_HAL\CMSIS\Device\ST\STM32F4xx\Source\Templates\gcc\startup_stm32f407xx.o
USART3_IRQHandler                                 D:\IOT\rtthread-v4.0\rt-thread\bsp\stm32\libraries\STM32F4xx_HAL\CMSIS\Device\ST\STM32F4xx\Source\Templates\gcc\startup_stm32f407xx.o
USART6_IRQHandler                                 D:\IOT\rtthread-v4.0\rt-thread\bsp\stm32\libraries\STM32F4xx_HAL\CMSIS\Device\ST\STM32F4xx\Source\Templates\gcc\startup_stm32f407xx.o
UsageFault_Handler                                D:\IOT\rtthread-v4.0\rt-thread\bsp\stm32\libraries\STM32F4xx_HAL\CMSIS\Device\ST\STM32F4xx\Source\Templates\gcc\startup_stm32f407xx.o
WWDG_IRQHandler                                   D:\IOT\rtthread-v4.0\rt-thread\bsp\stm32\libraries\STM32F4xx_HAL\CMSIS\Device\ST\STM32F4xx\Source\Templates\gcc\startup_stm32f407xx.o
_Error_Handler                                    D:\IOT\rtthread-v4.0\rt-thread\bsp\stm32\libraries\HAL_Drivers\drv_common.o
                                                  build\board\board.o
_Jv_RegisterClasses                               c:/myprogram/rt_thread/env/tools/gnu_gcc/arm_gcc/mingw/bin/../lib/gcc/arm-none-eabi/5.4.1/armv7e-m/fpu/crtbegin.o
__adddf3                                          c:/myprogram/rt_thread/env/tools/gnu_gcc/arm_gcc/mingw/bin/../lib/gcc/arm-none-eabi/5.4.1/armv7e-m/fpu\libgcc.a(_arm_addsubdf3.o)
__aeabi_d2iz                                      c:/myprogram/rt_thread/env/tools/gnu_gcc/arm_gcc/mingw/bin/../lib/gcc/arm-none-eabi/5.4.1/armv7e-m/fpu\libgcc.a(_arm_fixdfsi.o)
                                                  build\kernel\components\libc\compilers\minilibc\math.o
__aeabi_dadd                                      c:/myprogram/rt_thread/env/tools/gnu_gcc/arm_gcc/mingw/bin/../lib/gcc/arm-none-eabi/5.4.1/armv7e-m/fpu\libgcc.a(_arm_addsubdf3.o)
                                                  build\kernel\components\libc\compilers\minilibc\math.o
__aeabi_ddiv                                      c:/myprogram/rt_thread/env/tools/gnu_gcc/arm_gcc/mingw/bin/../lib/gcc/arm-none-eabi/5.4.1/armv7e-m/fpu\libgcc.a(_arm_muldivdf3.o)
__aeabi_dmul                                      c:/myprogram/rt_thread/env/tools/gnu_gcc/arm_gcc/mingw/bin/../lib/gcc/arm-none-eabi/5.4.1/armv7e-m/fpu\libgcc.a(_arm_muldivdf3.o)
                                                  build\kernel\components\libc\compilers\minilibc\math.o
__aeabi_drsub                                     c:/myprogram/rt_thread/env/tools/gnu_gcc/arm_gcc/mingw/bin/../lib/gcc/arm-none-eabi/5.4.1/armv7e-m/fpu\libgcc.a(_arm_addsubdf3.o)
__aeabi_dsub                                      c:/myprogram/rt_thread/env/tools/gnu_gcc/arm_gcc/mingw/bin/../lib/gcc/arm-none-eabi/5.4.1/armv7e-m/fpu\libgcc.a(_arm_addsubdf3.o)
                                                  build\kernel\components\libc\compilers\minilibc\math.o
__aeabi_f2d                                       c:/myprogram/rt_thread/env/tools/gnu_gcc/arm_gcc/mingw/bin/../lib/gcc/arm-none-eabi/5.4.1/armv7e-m/fpu\libgcc.a(_arm_addsubdf3.o)
__aeabi_i2d                                       c:/myprogram/rt_thread/env/tools/gnu_gcc/arm_gcc/mingw/bin/../lib/gcc/arm-none-eabi/5.4.1/armv7e-m/fpu\libgcc.a(_arm_addsubdf3.o)
                                                  build\kernel\components\libc\compilers\minilibc\math.o
__aeabi_idiv0                                     c:/myprogram/rt_thread/env/tools/gnu_gcc/arm_gcc/mingw/bin/../lib/gcc/arm-none-eabi/5.4.1/armv7e-m/fpu\libgcc.a(_dvmd_tls.o)
__aeabi_l2d                                       c:/myprogram/rt_thread/env/tools/gnu_gcc/arm_gcc/mingw/bin/../lib/gcc/arm-none-eabi/5.4.1/armv7e-m/fpu\libgcc.a(_arm_addsubdf3.o)
__aeabi_ldiv0                                     c:/myprogram/rt_thread/env/tools/gnu_gcc/arm_gcc/mingw/bin/../lib/gcc/arm-none-eabi/5.4.1/armv7e-m/fpu\libgcc.a(_dvmd_tls.o)
                                                  c:/myprogram/rt_thread/env/tools/gnu_gcc/arm_gcc/mingw/bin/../lib/gcc/arm-none-eabi/5.4.1/armv7e-m/fpu\libgcc.a(_aeabi_uldivmod.o)
__aeabi_ui2d                                      c:/myprogram/rt_thread/env/tools/gnu_gcc/arm_gcc/mingw/bin/../lib/gcc/arm-none-eabi/5.4.1/armv7e-m/fpu\libgcc.a(_arm_addsubdf3.o)
__aeabi_ul2d                                      c:/myprogram/rt_thread/env/tools/gnu_gcc/arm_gcc/mingw/bin/../lib/gcc/arm-none-eabi/5.4.1/armv7e-m/fpu\libgcc.a(_arm_addsubdf3.o)
__aeabi_uldivmod                                  c:/myprogram/rt_thread/env/tools/gnu_gcc/arm_gcc/mingw/bin/../lib/gcc/arm-none-eabi/5.4.1/armv7e-m/fpu\libgcc.a(_aeabi_uldivmod.o)
                                                  D:\IOT\rtthread-v4.0\rt-thread\bsp\stm32\libraries\STM32F4xx_HAL\STM32F4xx_HAL_Driver\Src\stm32f4xx_hal_rcc.o
__bss_end                                         D:\IOT\rtthread-v4.0\rt-thread\bsp\stm32\libraries\HAL_Drivers\drv_common.o
__bss_end__                                       c:/myprogram/rt_thread/env/tools/gnu_gcc/arm_gcc/mingw/bin/../lib/gcc/arm-none-eabi/5.4.1/../../../../arm-none-eabi/lib/armv7e-m/fpu/crt0.o
__bss_start__                                     c:/myprogram/rt_thread/env/tools/gnu_gcc/arm_gcc/mingw/bin/../lib/gcc/arm-none-eabi/5.4.1/../../../../arm-none-eabi/lib/armv7e-m/fpu/crt0.o
__call_exitprocs                                  c:/myprogram/rt_thread/env/tools/gnu_gcc/arm_gcc/mingw/bin/../lib/gcc/arm-none-eabi/5.4.1/../../../../arm-none-eabi/lib/armv7e-m/fpu\libc.a(lib_a-__call_atexit.o)
                                                  c:/myprogram/rt_thread/env/tools/gnu_gcc/arm_gcc/mingw/bin/../lib/gcc/arm-none-eabi/5.4.1/../../../../arm-none-eabi/lib/armv7e-m/fpu\libc.a(lib_a-exit.o)
__deregister_frame_info                           c:/myprogram/rt_thread/env/tools/gnu_gcc/arm_gcc/mingw/bin/../lib/gcc/arm-none-eabi/5.4.1/armv7e-m/fpu/crtbegin.o
__div0                                            build\kernel\libcpu\arm\common\div0.o
__divdf3                                          c:/myprogram/rt_thread/env/tools/gnu_gcc/arm_gcc/mingw/bin/../lib/gcc/arm-none-eabi/5.4.1/armv7e-m/fpu\libgcc.a(_arm_muldivdf3.o)
__dso_handle                                      c:/myprogram/rt_thread/env/tools/gnu_gcc/arm_gcc/mingw/bin/../lib/gcc/arm-none-eabi/5.4.1/armv7e-m/fpu/crtbegin.o
__extendsfdf2                                     c:/myprogram/rt_thread/env/tools/gnu_gcc/arm_gcc/mingw/bin/../lib/gcc/arm-none-eabi/5.4.1/armv7e-m/fpu\libgcc.a(_arm_addsubdf3.o)
__fini_array_end                                  c:/myprogram/rt_thread/env/tools/gnu_gcc/arm_gcc/mingw/bin/../lib/gcc/arm-none-eabi/5.4.1/../../../../arm-none-eabi/lib/armv7e-m/fpu\libc.a(lib_a-fini.o)
__fini_array_start                                c:/myprogram/rt_thread/env/tools/gnu_gcc/arm_gcc/mingw/bin/../lib/gcc/arm-none-eabi/5.4.1/../../../../arm-none-eabi/lib/armv7e-m/fpu\libc.a(lib_a-fini.o)
__fixdfsi                                         c:/myprogram/rt_thread/env/tools/gnu_gcc/arm_gcc/mingw/bin/../lib/gcc/arm-none-eabi/5.4.1/armv7e-m/fpu\libgcc.a(_arm_fixdfsi.o)
__floatdidf                                       c:/myprogram/rt_thread/env/tools/gnu_gcc/arm_gcc/mingw/bin/../lib/gcc/arm-none-eabi/5.4.1/armv7e-m/fpu\libgcc.a(_arm_addsubdf3.o)
__floatsidf                                       c:/myprogram/rt_thread/env/tools/gnu_gcc/arm_gcc/mingw/bin/../lib/gcc/arm-none-eabi/5.4.1/armv7e-m/fpu\libgcc.a(_arm_addsubdf3.o)
__floatundidf                                     c:/myprogram/rt_thread/env/tools/gnu_gcc/arm_gcc/mingw/bin/../lib/gcc/arm-none-eabi/5.4.1/armv7e-m/fpu\libgcc.a(_arm_addsubdf3.o)
__floatunsidf                                     c:/myprogram/rt_thread/env/tools/gnu_gcc/arm_gcc/mingw/bin/../lib/gcc/arm-none-eabi/5.4.1/armv7e-m/fpu\libgcc.a(_arm_addsubdf3.o)
__fsym___cmd_free                                 build\kernel\components\finsh\msh.o
__fsym___cmd_free_desc                            build\kernel\components\finsh\msh.o
__fsym___cmd_free_name                            build\kernel\components\finsh\msh.o
__fsym___cmd_help                                 build\kernel\components\finsh\msh.o
__fsym___cmd_help_desc                            build\kernel\components\finsh\msh.o
__fsym___cmd_help_name                            build\kernel\components\finsh\msh.o
__fsym___cmd_list_device                          build\kernel\components\finsh\cmd.o
__fsym___cmd_list_device_desc                     build\kernel\components\finsh\cmd.o
__fsym___cmd_list_device_name                     build\kernel\components\finsh\cmd.o
__fsym___cmd_list_event                           build\kernel\components\finsh\cmd.o
__fsym___cmd_list_event_desc                      build\kernel\components\finsh\cmd.o
__fsym___cmd_list_event_name                      build\kernel\components\finsh\cmd.o
__fsym___cmd_list_mailbox                         build\kernel\components\finsh\cmd.o
__fsym___cmd_list_mailbox_desc                    build\kernel\components\finsh\cmd.o
__fsym___cmd_list_mailbox_name                    build\kernel\components\finsh\cmd.o
__fsym___cmd_list_mempool                         build\kernel\components\finsh\cmd.o
__fsym___cmd_list_mempool_desc                    build\kernel\components\finsh\cmd.o
__fsym___cmd_list_mempool_name                    build\kernel\components\finsh\cmd.o
__fsym___cmd_list_msgqueue                        build\kernel\components\finsh\cmd.o
__fsym___cmd_list_msgqueue_desc                   build\kernel\components\finsh\cmd.o
__fsym___cmd_list_msgqueue_name                   build\kernel\components\finsh\cmd.o
__fsym___cmd_list_mutex                           build\kernel\components\finsh\cmd.o
__fsym___cmd_list_mutex_desc                      build\kernel\components\finsh\cmd.o
__fsym___cmd_list_mutex_name                      build\kernel\components\finsh\cmd.o
__fsym___cmd_list_sem                             build\kernel\components\finsh\cmd.o
__fsym___cmd_list_sem_desc                        build\kernel\components\finsh\cmd.o
__fsym___cmd_list_sem_name                        build\kernel\components\finsh\cmd.o
__fsym___cmd_list_thread                          build\kernel\components\finsh\cmd.o
__fsym___cmd_list_thread_desc                     build\kernel\components\finsh\cmd.o
__fsym___cmd_list_thread_name                     build\kernel\components\finsh\cmd.o
__fsym___cmd_list_timer                           build\kernel\components\finsh\cmd.o
__fsym___cmd_list_timer_desc                      build\kernel\components\finsh\cmd.o
__fsym___cmd_list_timer_name                      build\kernel\components\finsh\cmd.o
__fsym___cmd_ps                                   build\kernel\components\finsh\msh.o
__fsym___cmd_ps_desc                              build\kernel\components\finsh\msh.o
__fsym___cmd_ps_name                              build\kernel\components\finsh\msh.o
__fsym___cmd_reboot                               D:\IOT\rtthread-v4.0\rt-thread\bsp\stm32\libraries\HAL_Drivers\drv_common.o
__fsym___cmd_reboot_desc                          D:\IOT\rtthread-v4.0\rt-thread\bsp\stm32\libraries\HAL_Drivers\drv_common.o
__fsym___cmd_reboot_name                          D:\IOT\rtthread-v4.0\rt-thread\bsp\stm32\libraries\HAL_Drivers\drv_common.o
__fsym___cmd_version                              build\kernel\components\finsh\cmd.o
__fsym___cmd_version_desc                         build\kernel\components\finsh\cmd.o
__fsym___cmd_version_name                         build\kernel\components\finsh\cmd.o
__fsym_hello                                      build\kernel\components\finsh\cmd.o
__fsym_hello_desc                                 build\kernel\components\finsh\cmd.o
__fsym_hello_name                                 build\kernel\components\finsh\cmd.o
__fsym_list                                       build\kernel\components\finsh\cmd.o
__fsym_list_desc                                  build\kernel\components\finsh\cmd.o
__fsym_list_device                                build\kernel\components\finsh\cmd.o
__fsym_list_device_desc                           build\kernel\components\finsh\cmd.o
__fsym_list_device_name                           build\kernel\components\finsh\cmd.o
__fsym_list_event                                 build\kernel\components\finsh\cmd.o
__fsym_list_event_desc                            build\kernel\components\finsh\cmd.o
__fsym_list_event_name                            build\kernel\components\finsh\cmd.o
__fsym_list_mailbox                               build\kernel\components\finsh\cmd.o
__fsym_list_mailbox_desc                          build\kernel\components\finsh\cmd.o
__fsym_list_mailbox_name                          build\kernel\components\finsh\cmd.o
__fsym_list_mem                                   build\kernel\src\mem.o
__fsym_list_mem_desc                              build\kernel\src\mem.o
__fsym_list_mem_name                              build\kernel\src\mem.o
__fsym_list_mempool                               build\kernel\components\finsh\cmd.o
__fsym_list_mempool_desc                          build\kernel\components\finsh\cmd.o
__fsym_list_mempool_name                          build\kernel\components\finsh\cmd.o
__fsym_list_msgqueue                              build\kernel\components\finsh\cmd.o
__fsym_list_msgqueue_desc                         build\kernel\components\finsh\cmd.o
__fsym_list_msgqueue_name                         build\kernel\components\finsh\cmd.o
__fsym_list_mutex                                 build\kernel\components\finsh\cmd.o
__fsym_list_mutex_desc                            build\kernel\components\finsh\cmd.o
__fsym_list_mutex_name                            build\kernel\components\finsh\cmd.o
__fsym_list_name                                  build\kernel\components\finsh\cmd.o
__fsym_list_sem                                   build\kernel\components\finsh\cmd.o
__fsym_list_sem_desc                              build\kernel\components\finsh\cmd.o
__fsym_list_sem_name                              build\kernel\components\finsh\cmd.o
__fsym_list_thread                                build\kernel\components\finsh\cmd.o
__fsym_list_thread_desc                           build\kernel\components\finsh\cmd.o
__fsym_list_thread_name                           build\kernel\components\finsh\cmd.o
__fsym_list_timer                                 build\kernel\components\finsh\cmd.o
__fsym_list_timer_desc                            build\kernel\components\finsh\cmd.o
__fsym_list_timer_name                            build\kernel\components\finsh\cmd.o
__fsym_pinMode                                    build\kernel\components\drivers\misc\pin.o
__fsym_pinMode_desc                               build\kernel\components\drivers\misc\pin.o
__fsym_pinMode_name                               build\kernel\components\drivers\misc\pin.o
__fsym_pinRead                                    build\kernel\components\drivers\misc\pin.o
__fsym_pinRead_desc                               build\kernel\components\drivers\misc\pin.o
__fsym_pinRead_name                               build\kernel\components\drivers\misc\pin.o
__fsym_pinWrite                                   build\kernel\components\drivers\misc\pin.o
__fsym_pinWrite_desc                              build\kernel\components\drivers\misc\pin.o
__fsym_pinWrite_name                              build\kernel\components\drivers\misc\pin.o
__fsym_version                                    build\kernel\components\finsh\cmd.o
__fsym_version_desc                               build\kernel\components\finsh\cmd.o
__fsym_version_name                               build\kernel\components\finsh\cmd.o
__fsymtab_end                                     build\kernel\components\finsh\shell.o
__fsymtab_start                                   build\kernel\components\finsh\shell.o
__init_array_end                                  c:/myprogram/rt_thread/env/tools/gnu_gcc/arm_gcc/mingw/bin/../lib/gcc/arm-none-eabi/5.4.1/../../../../arm-none-eabi/lib/armv7e-m/fpu\libc.a(lib_a-init.o)
__init_array_start                                c:/myprogram/rt_thread/env/tools/gnu_gcc/arm_gcc/mingw/bin/../lib/gcc/arm-none-eabi/5.4.1/../../../../arm-none-eabi/lib/armv7e-m/fpu\libc.a(lib_a-init.o)
__isleap                                          build\kernel\components\libc\compilers\minilibc\time.o
__libc_fini                                       c:/myprogram/rt_thread/env/tools/gnu_gcc/arm_gcc/mingw/bin/../lib/gcc/arm-none-eabi/5.4.1/../../../../arm-none-eabi/lib/armv7e-m/fpu\libc.a(lib_a-__call_atexit.o)
__libc_fini_array                                 c:/myprogram/rt_thread/env/tools/gnu_gcc/arm_gcc/mingw/bin/../lib/gcc/arm-none-eabi/5.4.1/../../../../arm-none-eabi/lib/armv7e-m/fpu\libc.a(lib_a-fini.o)
                                                  c:/myprogram/rt_thread/env/tools/gnu_gcc/arm_gcc/mingw/bin/../lib/gcc/arm-none-eabi/5.4.1/../../../../arm-none-eabi/lib/armv7e-m/fpu\libc.a(lib_a-__call_atexit.o)
                                                  c:/myprogram/rt_thread/env/tools/gnu_gcc/arm_gcc/mingw/bin/../lib/gcc/arm-none-eabi/5.4.1/../../../../arm-none-eabi/lib/armv7e-m/fpu/crt0.o
__libc_init_array                                 c:/myprogram/rt_thread/env/tools/gnu_gcc/arm_gcc/mingw/bin/../lib/gcc/arm-none-eabi/5.4.1/../../../../arm-none-eabi/lib/armv7e-m/fpu\libc.a(lib_a-init.o)
                                                  c:/myprogram/rt_thread/env/tools/gnu_gcc/arm_gcc/mingw/bin/../lib/gcc/arm-none-eabi/5.4.1/../../../../arm-none-eabi/lib/armv7e-m/fpu/crt0.o
__muldf3                                          c:/myprogram/rt_thread/env/tools/gnu_gcc/arm_gcc/mingw/bin/../lib/gcc/arm-none-eabi/5.4.1/armv7e-m/fpu\libgcc.a(_arm_muldivdf3.o)
__preinit_array_end                               c:/myprogram/rt_thread/env/tools/gnu_gcc/arm_gcc/mingw/bin/../lib/gcc/arm-none-eabi/5.4.1/../../../../arm-none-eabi/lib/armv7e-m/fpu\libc.a(lib_a-init.o)
__preinit_array_start                             c:/myprogram/rt_thread/env/tools/gnu_gcc/arm_gcc/mingw/bin/../lib/gcc/arm-none-eabi/5.4.1/../../../../arm-none-eabi/lib/armv7e-m/fpu\libc.a(lib_a-init.o)
__register_exitproc                               c:/myprogram/rt_thread/env/tools/gnu_gcc/arm_gcc/mingw/bin/../lib/gcc/arm-none-eabi/5.4.1/../../../../arm-none-eabi/lib/armv7e-m/fpu\libc.a(lib_a-__atexit.o)
                                                  c:/myprogram/rt_thread/env/tools/gnu_gcc/arm_gcc/mingw/bin/../lib/gcc/arm-none-eabi/5.4.1/../../../../arm-none-eabi/lib/armv7e-m/fpu\libc.a(lib_a-atexit.o)
__register_frame_info                             c:/myprogram/rt_thread/env/tools/gnu_gcc/arm_gcc/mingw/bin/../lib/gcc/arm-none-eabi/5.4.1/armv7e-m/fpu/crtbegin.o
__rt_ffs                                          build\kernel\libcpu\arm\cortex-m4\cpuport.o
                                                  build\kernel\src\scheduler.o
__rt_init_finsh_system_init                       build\kernel\components\finsh\shell.o
__rt_init_rti_board_end                           build\kernel\src\components.o
__rt_init_rti_board_start                         build\kernel\src\components.o
__rt_init_rti_end                                 build\kernel\src\components.o
__rt_init_rti_start                               build\kernel\src\components.o
__spm                                             build\kernel\components\libc\compilers\minilibc\time.o
__stack                                           c:/myprogram/rt_thread/env/tools/gnu_gcc/arm_gcc/mingw/bin/../lib/gcc/arm-none-eabi/5.4.1/../../../../arm-none-eabi/lib/armv7e-m/fpu/crt0.o
__subdf3                                          c:/myprogram/rt_thread/env/tools/gnu_gcc/arm_gcc/mingw/bin/../lib/gcc/arm-none-eabi/5.4.1/armv7e-m/fpu\libgcc.a(_arm_addsubdf3.o)
__udivmoddi4                                      c:/myprogram/rt_thread/env/tools/gnu_gcc/arm_gcc/mingw/bin/../lib/gcc/arm-none-eabi/5.4.1/armv7e-m/fpu\libgcc.a(_udivmoddi4.o)
                                                  c:/myprogram/rt_thread/env/tools/gnu_gcc/arm_gcc/mingw/bin/../lib/gcc/arm-none-eabi/5.4.1/armv7e-m/fpu\libgcc.a(_aeabi_uldivmod.o)
__vsymtab_end                                     build\kernel\components\finsh\shell.o
__vsymtab_start                                   build\kernel\components\finsh\shell.o
__wqueue_default_wake                             build\kernel\components\drivers\src\waitqueue.o
_ctype                                            build\kernel\components\libc\compilers\minilibc\string.o
_ebss                                             D:\IOT\rtthread-v4.0\rt-thread\bsp\stm32\libraries\STM32F4xx_HAL\CMSIS\Device\ST\STM32F4xx\Source\Templates\gcc\startup_stm32f407xx.o
_edata                                            D:\IOT\rtthread-v4.0\rt-thread\bsp\stm32\libraries\STM32F4xx_HAL\CMSIS\Device\ST\STM32F4xx\Source\Templates\gcc\startup_stm32f407xx.o
_estack                                           D:\IOT\rtthread-v4.0\rt-thread\bsp\stm32\libraries\STM32F4xx_HAL\CMSIS\Device\ST\STM32F4xx\Source\Templates\gcc\startup_stm32f407xx.o
_exit                                             c:/myprogram/rt_thread/env/tools/gnu_gcc/arm_gcc/mingw/bin/../lib/gcc/arm-none-eabi/5.4.1/../../../../arm-none-eabi/lib/armv7e-m/fpu\libc.a(lib_a-exit.o)
_fini                                             c:/myprogram/rt_thread/env/tools/gnu_gcc/arm_gcc/mingw/bin/../lib/gcc/arm-none-eabi/5.4.1/armv7e-m/fpu/crti.o
                                                  c:/myprogram/rt_thread/env/tools/gnu_gcc/arm_gcc/mingw/bin/../lib/gcc/arm-none-eabi/5.4.1/../../../../arm-none-eabi/lib/armv7e-m/fpu\libc.a(lib_a-fini.o)
_gettimeofday                                     build\kernel\components\libc\compilers\minilibc\time.o
_global_impure_ptr                                c:/myprogram/rt_thread/env/tools/gnu_gcc/arm_gcc/mingw/bin/../lib/gcc/arm-none-eabi/5.4.1/../../../../arm-none-eabi/lib/armv7e-m/fpu\libc.a(lib_a-impure.o)
                                                  c:/myprogram/rt_thread/env/tools/gnu_gcc/arm_gcc/mingw/bin/../lib/gcc/arm-none-eabi/5.4.1/../../../../arm-none-eabi/lib/armv7e-m/fpu\libc.a(lib_a-__atexit.o)
                                                  c:/myprogram/rt_thread/env/tools/gnu_gcc/arm_gcc/mingw/bin/../lib/gcc/arm-none-eabi/5.4.1/../../../../arm-none-eabi/lib/armv7e-m/fpu\libc.a(lib_a-__call_atexit.o)
                                                  c:/myprogram/rt_thread/env/tools/gnu_gcc/arm_gcc/mingw/bin/../lib/gcc/arm-none-eabi/5.4.1/../../../../arm-none-eabi/lib/armv7e-m/fpu\libc.a(lib_a-exit.o)
_impure_ptr                                       c:/myprogram/rt_thread/env/tools/gnu_gcc/arm_gcc/mingw/bin/../lib/gcc/arm-none-eabi/5.4.1/../../../../arm-none-eabi/lib/armv7e-m/fpu\libc.a(lib_a-impure.o)
_init                                             c:/myprogram/rt_thread/env/tools/gnu_gcc/arm_gcc/mingw/bin/../lib/gcc/arm-none-eabi/5.4.1/armv7e-m/fpu/crti.o
                                                  c:/myprogram/rt_thread/env/tools/gnu_gcc/arm_gcc/mingw/bin/../lib/gcc/arm-none-eabi/5.4.1/../../../../arm-none-eabi/lib/armv7e-m/fpu\libc.a(lib_a-init.o)
_mainCRTStartup                                   c:/myprogram/rt_thread/env/tools/gnu_gcc/arm_gcc/mingw/bin/../lib/gcc/arm-none-eabi/5.4.1/../../../../arm-none-eabi/lib/armv7e-m/fpu/crt0.o
_rt_errno                                         build\kernel\src\kservice.o
_sbss                                             D:\IOT\rtthread-v4.0\rt-thread\bsp\stm32\libraries\STM32F4xx_HAL\CMSIS\Device\ST\STM32F4xx\Source\Templates\gcc\startup_stm32f407xx.o
_sdata                                            D:\IOT\rtthread-v4.0\rt-thread\bsp\stm32\libraries\STM32F4xx_HAL\CMSIS\Device\ST\STM32F4xx\Source\Templates\gcc\startup_stm32f407xx.o
_sidata                                           D:\IOT\rtthread-v4.0\rt-thread\bsp\stm32\libraries\STM32F4xx_HAL\CMSIS\Device\ST\STM32F4xx\Source\Templates\gcc\startup_stm32f407xx.o
_start                                            c:/myprogram/rt_thread/env/tools/gnu_gcc/arm_gcc/mingw/bin/../lib/gcc/arm-none-eabi/5.4.1/../../../../arm-none-eabi/lib/armv7e-m/fpu/crt0.o
_syscall_table_begin                              build\kernel\components\finsh\shell.o
                                                  build\kernel\components\finsh\msh.o
                                                  build\kernel\components\finsh\cmd.o
_syscall_table_end                                build\kernel\components\finsh\shell.o
                                                  build\kernel\components\finsh\msh.o
                                                  build\kernel\components\finsh\cmd.o
_sysvar_table_begin                               build\kernel\components\finsh\shell.o
_sysvar_table_end                                 build\kernel\components\finsh\shell.o
asctime                                           build\kernel\components\libc\compilers\minilibc\time.o
asctime_r                                         build\kernel\components\libc\compilers\minilibc\time.o
atexit                                            c:/myprogram/rt_thread/env/tools/gnu_gcc/arm_gcc/mingw/bin/../lib/gcc/arm-none-eabi/5.4.1/../../../../arm-none-eabi/lib/armv7e-m/fpu\libc.a(lib_a-atexit.o)
                                                  c:/myprogram/rt_thread/env/tools/gnu_gcc/arm_gcc/mingw/bin/../lib/gcc/arm-none-eabi/5.4.1/../../../../arm-none-eabi/lib/armv7e-m/fpu\libc.a(lib_a-__call_atexit.o)
                                                  c:/myprogram/rt_thread/env/tools/gnu_gcc/arm_gcc/mingw/bin/../lib/gcc/arm-none-eabi/5.4.1/../../../../arm-none-eabi/lib/armv7e-m/fpu/crt0.o
atoi                                              build\kernel\components\libc\compilers\minilibc\stdlib.o
atol                                              build\kernel\components\libc\compilers\minilibc\stdlib.o
calloc                                            build\kernel\components\libc\compilers\minilibc\stdlib.o
clock                                             build\kernel\components\libc\compilers\minilibc\time.o
cmd_free                                          build\kernel\components\finsh\msh.o
cmd_ps                                            build\kernel\components\finsh\msh.o
cos                                               build\kernel\components\libc\compilers\minilibc\math.o
ctime                                             build\kernel\components\libc\compilers\minilibc\time.o
entry                                             build\kernel\src\components.o
                                                  D:\IOT\rtthread-v4.0\rt-thread\bsp\stm32\libraries\STM32F4xx_HAL\CMSIS\Device\ST\STM32F4xx\Source\Templates\gcc\startup_stm32f407xx.o
exit                                              c:/myprogram/rt_thread/env/tools/gnu_gcc/arm_gcc/mingw/bin/../lib/gcc/arm-none-eabi/5.4.1/../../../../arm-none-eabi/lib/armv7e-m/fpu\libc.a(lib_a-exit.o)
                                                  c:/myprogram/rt_thread/env/tools/gnu_gcc/arm_gcc/mingw/bin/../lib/gcc/arm-none-eabi/5.4.1/../../../../arm-none-eabi/lib/armv7e-m/fpu/crt0.o
finsh_get_device                                  build\kernel\components\finsh\shell.o
finsh_get_echo                                    build\kernel\components\finsh\shell.o
finsh_get_prompt                                  build\kernel\components\finsh\shell.o
finsh_get_prompt_mode                             build\kernel\components\finsh\shell.o
finsh_set_device                                  build\kernel\components\finsh\shell.o
finsh_set_echo                                    build\kernel\components\finsh\shell.o
finsh_set_prompt                                  build\kernel\components\finsh\shell.o
finsh_set_prompt_mode                             build\kernel\components\finsh\shell.o
finsh_system_function_init                        build\kernel\components\finsh\shell.o
finsh_system_init                                 build\kernel\components\finsh\shell.o
finsh_system_var_init                             build\kernel\components\finsh\shell.o
finsh_thread_entry                                build\kernel\components\finsh\shell.o
free                                              build\kernel\components\libc\compilers\minilibc\stdlib.o
                                                  c:/myprogram/rt_thread/env/tools/gnu_gcc/arm_gcc/mingw/bin/../lib/gcc/arm-none-eabi/5.4.1/../../../../arm-none-eabi/lib/armv7e-m/fpu\libc.a(lib_a-__call_atexit.o)
g_pfnVectors                                      D:\IOT\rtthread-v4.0\rt-thread\bsp\stm32\libraries\STM32F4xx_HAL\CMSIS\Device\ST\STM32F4xx\Source\Templates\gcc\startup_stm32f407xx.o
gettimeofday                                      build\kernel\components\libc\compilers\minilibc\time.o
gmtime_r                                          build\kernel\components\libc\compilers\minilibc\time.o
hardware_init_hook                                c:/myprogram/rt_thread/env/tools/gnu_gcc/arm_gcc/mingw/bin/../lib/gcc/arm-none-eabi/5.4.1/../../../../arm-none-eabi/lib/armv7e-m/fpu/crt0.o
hello                                             build\kernel\components\finsh\cmd.o
isalpha                                           build\kernel\components\libc\compilers\minilibc\ctype.o
isdigit                                           build\kernel\components\libc\compilers\minilibc\ctype.o
isprint                                           build\kernel\components\libc\compilers\minilibc\ctype.o
isspace                                           build\kernel\components\libc\compilers\minilibc\ctype.o
list                                              build\kernel\components\finsh\cmd.o
list_device                                       build\kernel\components\finsh\cmd.o
list_event                                        build\kernel\components\finsh\cmd.o
list_mailbox                                      build\kernel\components\finsh\cmd.o
list_mem                                          build\kernel\src\mem.o
                                                  build\kernel\components\finsh\msh.o
list_mempool                                      build\kernel\components\finsh\cmd.o
list_msgqueue                                     build\kernel\components\finsh\cmd.o
list_mutex                                        build\kernel\components\finsh\cmd.o
list_sem                                          build\kernel\components\finsh\cmd.o
list_thread                                       build\kernel\components\finsh\cmd.o
                                                  build\kernel\components\finsh\msh.o
                                                  build\kernel\libcpu\arm\cortex-m4\cpuport.o
                                                  build\kernel\src\scheduler.o
list_timer                                        build\kernel\components\finsh\cmd.o
localtime                                         build\kernel\components\libc\compilers\minilibc\time.o
localtime_r                                       build\kernel\components\libc\compilers\minilibc\time.o
main                                              build\applications\main.o
                                                  build\kernel\src\components.o
                                                  c:/myprogram/rt_thread/env/tools/gnu_gcc/arm_gcc/mingw/bin/../lib/gcc/arm-none-eabi/5.4.1/../../../../arm-none-eabi/lib/armv7e-m/fpu/crt0.o
main_thread_entry                                 build\kernel\src\components.o
malloc                                            build\kernel\components\libc\compilers\minilibc\stdlib.o
                                                  c:/myprogram/rt_thread/env/tools/gnu_gcc/arm_gcc/mingw/bin/../lib/gcc/arm-none-eabi/5.4.1/../../../../arm-none-eabi/lib/armv7e-m/fpu\libc.a(lib_a-__atexit.o)
memcmp                                            build\kernel\src\kservice.o
                                                  build\kernel\components\finsh\shell.o
memcpy                                            build\kernel\src\kservice.o
                                                  build\kernel\components\finsh\cmd.o
                                                  build\kernel\components\finsh\shell.o
                                                  build\kernel\components\drivers\src\ringbuffer.o
memmove                                           build\kernel\src\kservice.o
memset                                            build\kernel\src\kservice.o
                                                  build\kernel\components\finsh\msh.o
                                                  build\kernel\components\finsh\shell.o
                                                  build\board\board.o
                                                  c:/myprogram/rt_thread/env/tools/gnu_gcc/arm_gcc/mingw/bin/../lib/gcc/arm-none-eabi/5.4.1/../../../../arm-none-eabi/lib/armv7e-m/fpu/crt0.o
mktime                                            build\kernel\components\libc\compilers\minilibc\time.o
msh_auto_complete                                 build\kernel\components\finsh\msh.o
                                                  build\kernel\components\finsh\shell.o
msh_exec                                          build\kernel\components\finsh\msh.o
                                                  build\kernel\components\finsh\shell.o
msh_help                                          build\kernel\components\finsh\msh.o
msh_is_used                                       build\kernel\components\finsh\msh.o
                                                  build\kernel\components\finsh\shell.o
qsort                                             build\kernel\components\libc\compilers\minilibc\qsort.o
rand                                              build\kernel\components\libc\compilers\minilibc\rand.o
rand_r                                            build\kernel\components\libc\compilers\minilibc\rand.o
random                                            build\kernel\components\libc\compilers\minilibc\rand.o
realloc                                           build\kernel\components\libc\compilers\minilibc\stdlib.o
rt_application_init                               build\kernel\src\components.o
rt_assert_handler                                 build\kernel\src\kservice.o
                                                  D:\IOT\rtthread-v4.0\rt-thread\bsp\stm32\libraries\HAL_Drivers\drv_usart.o
                                                  build\kernel\components\libc\compilers\minilibc\time.o
                                                  build\kernel\components\finsh\msh.o
                                                  build\kernel\components\finsh\shell.o
                                                  build\kernel\components\drivers\src\workqueue.o
                                                  build\kernel\components\drivers\src\waitqueue.o
                                                  build\kernel\components\drivers\src\ringbuffer.o
                                                  build\kernel\components\drivers\src\ringblk_buf.o
                                                  build\kernel\components\drivers\src\pipe.o
                                                  build\kernel\components\drivers\src\dataqueue.o
                                                  build\kernel\components\drivers\src\completion.o
                                                  build\kernel\components\drivers\serial\serial.o
                                                  build\kernel\components\drivers\misc\pin.o
                                                  build\kernel\libcpu\arm\cortex-m4\cpuport.o
                                                  build\kernel\libcpu\arm\common\showmem.o
                                                  build\kernel\src\timer.o
                                                  build\kernel\src\thread.o
                                                  build\kernel\src\scheduler.o
                                                  build\kernel\src\object.o
                                                  build\kernel\src\mempool.o
                                                  build\kernel\src\mem.o
                                                  build\kernel\src\ipc.o
                                                  build\kernel\src\idle.o
                                                  build\kernel\src\device.o
                                                  build\kernel\src\components.o
rt_assert_hook                                    build\kernel\src\kservice.o
rt_assert_set_hook                                build\kernel\src\kservice.o
rt_calloc                                         build\kernel\src\mem.o
                                                  build\kernel\components\libc\compilers\minilibc\stdlib.o
                                                  build\kernel\components\finsh\shell.o
rt_completion_done                                build\kernel\components\drivers\src\completion.o
                                                  build\kernel\components\drivers\serial\serial.o
rt_completion_init                                build\kernel\components\drivers\src\completion.o
                                                  build\kernel\components\drivers\serial\serial.o
rt_completion_wait                                build\kernel\components\drivers\src\completion.o
                                                  build\kernel\components\drivers\serial\serial.o
rt_components_board_init                          build\kernel\src\components.o
                                                  D:\IOT\rtthread-v4.0\rt-thread\bsp\stm32\libraries\HAL_Drivers\drv_common.o
rt_components_init                                build\kernel\src\components.o
rt_console_get_device                             build\kernel\src\kservice.o
                                                  build\kernel\components\finsh\shell.o
rt_console_set_device                             build\kernel\src\kservice.o
                                                  D:\IOT\rtthread-v4.0\rt-thread\bsp\stm32\libraries\HAL_Drivers\drv_common.o
rt_critical_level                                 build\kernel\src\scheduler.o
rt_current_priority                               build\kernel\src\scheduler.o
rt_current_thread                                 build\kernel\src\scheduler.o
                                                  build\kernel\src\thread.o
rt_data_queue_init                                build\kernel\components\drivers\src\dataqueue.o
                                                  build\kernel\components\drivers\serial\serial.o
rt_data_queue_peak                                build\kernel\components\drivers\src\dataqueue.o
                                                  build\kernel\components\drivers\serial\serial.o
rt_data_queue_pop                                 build\kernel\components\drivers\src\dataqueue.o
                                                  build\kernel\components\drivers\serial\serial.o
rt_data_queue_push                                build\kernel\components\drivers\src\dataqueue.o
                                                  build\kernel\components\drivers\serial\serial.o
rt_data_queue_reset                               build\kernel\components\drivers\src\dataqueue.o
rt_delayed_work_init                              build\kernel\components\drivers\src\workqueue.o
rt_device_close                                   build\kernel\src\device.o
                                                  build\kernel\components\finsh\shell.o
                                                  build\kernel\src\kservice.o
rt_device_control                                 build\kernel\src\device.o
                                                  build\kernel\components\libc\compilers\minilibc\time.o
rt_device_create                                  build\kernel\src\device.o
rt_device_destroy                                 build\kernel\src\device.o
rt_device_find                                    build\kernel\src\device.o
                                                  build\kernel\components\libc\compilers\minilibc\time.o
                                                  build\kernel\components\finsh\shell.o
                                                  build\kernel\components\drivers\src\pipe.o
                                                  build\kernel\src\kservice.o
rt_device_init                                    build\kernel\src\device.o
rt_device_init_all                                build\kernel\src\device.o
rt_device_open                                    build\kernel\src\device.o
                                                  build\kernel\components\finsh\shell.o
                                                  build\kernel\src\kservice.o
rt_device_pin_register                            build\kernel\components\drivers\misc\pin.o
                                                  D:\IOT\rtthread-v4.0\rt-thread\bsp\stm32\libraries\HAL_Drivers\drv_gpio.o
rt_device_read                                    build\kernel\src\device.o
                                                  build\kernel\components\finsh\shell.o
rt_device_register                                build\kernel\src\device.o
                                                  build\kernel\components\drivers\src\pipe.o
                                                  build\kernel\components\drivers\serial\serial.o
                                                  build\kernel\components\drivers\misc\pin.o
rt_device_set_rx_indicate                         build\kernel\src\device.o
                                                  build\kernel\components\finsh\shell.o
rt_device_set_tx_complete                         build\kernel\src\device.o
rt_device_unregister                              build\kernel\src\device.o
                                                  build\kernel\components\drivers\src\pipe.o
rt_device_write                                   build\kernel\src\device.o
                                                  build\kernel\src\kservice.o
rt_enter_critical                                 build\kernel\src\scheduler.o
                                                  build\kernel\components\drivers\src\workqueue.o
                                                  build\kernel\components\drivers\src\dataqueue.o
                                                  build\kernel\src\thread.o
                                                  build\kernel\src\object.o
                                                  build\kernel\src\idle.o
                                                  build\kernel\src\device.o
rt_event_control                                  build\kernel\src\ipc.o
rt_event_create                                   build\kernel\src\ipc.o
rt_event_delete                                   build\kernel\src\ipc.o
rt_event_detach                                   build\kernel\src\ipc.o
rt_event_init                                     build\kernel\src\ipc.o
rt_event_recv                                     build\kernel\src\ipc.o
rt_event_send                                     build\kernel\src\ipc.o
rt_exit_critical                                  build\kernel\src\scheduler.o
                                                  build\kernel\components\drivers\src\workqueue.o
                                                  build\kernel\components\drivers\src\dataqueue.o
                                                  build\kernel\src\thread.o
                                                  build\kernel\src\object.o
                                                  build\kernel\src\idle.o
                                                  build\kernel\src\device.o
rt_free                                           build\kernel\src\mem.o
                                                  build\kernel\components\libc\compilers\minilibc\stdlib.o
                                                  build\kernel\components\finsh\shell.o
                                                  build\kernel\components\drivers\src\workqueue.o
                                                  build\kernel\components\drivers\src\ringbuffer.o
                                                  build\kernel\components\drivers\src\ringblk_buf.o
                                                  build\kernel\components\drivers\src\pipe.o
                                                  build\kernel\components\drivers\serial\serial.o
                                                  build\kernel\src\object.o
                                                  build\kernel\src\mempool.o
                                                  build\kernel\src\kservice.o
                                                  build\kernel\src\ipc.o
                                                  build\kernel\src\idle.o
                                                  build\kernel\src\device.o
rt_free_align                                     build\kernel\src\kservice.o
rt_free_sethook                                   build\kernel\src\mem.o
rt_get_errno                                      build\kernel\src\kservice.o
rt_hw_backtrace                                   build\kernel\libcpu\arm\common\backtrace.o
rt_hw_board_init                                  D:\IOT\rtthread-v4.0\rt-thread\bsp\stm32\libraries\HAL_Drivers\drv_common.o
                                                  build\kernel\src\components.o
rt_hw_console_output                              build\kernel\src\kservice.o
rt_hw_context_switch                              build\kernel\libcpu\arm\cortex-m4\context_gcc.o
                                                  build\kernel\src\scheduler.o
rt_hw_context_switch_interrupt                    build\kernel\libcpu\arm\cortex-m4\context_gcc.o
                                                  build\kernel\src\scheduler.o
rt_hw_context_switch_to                           build\kernel\libcpu\arm\cortex-m4\context_gcc.o
                                                  build\kernel\src\scheduler.o
rt_hw_cpu_reset                                   build\kernel\libcpu\arm\cortex-m4\cpuport.o
                                                  D:\IOT\rtthread-v4.0\rt-thread\bsp\stm32\libraries\HAL_Drivers\drv_common.o
rt_hw_cpu_shutdown                                build\kernel\libcpu\arm\cortex-m4\cpuport.o
rt_hw_exception_install                           build\kernel\libcpu\arm\cortex-m4\cpuport.o
rt_hw_hard_fault_exception                        build\kernel\libcpu\arm\cortex-m4\cpuport.o
                                                  build\kernel\libcpu\arm\cortex-m4\context_gcc.o
rt_hw_interrupt_disable                           build\kernel\libcpu\arm\cortex-m4\context_gcc.o
                                                  D:\IOT\rtthread-v4.0\rt-thread\bsp\stm32\libraries\HAL_Drivers\drv_usart.o
                                                  D:\IOT\rtthread-v4.0\rt-thread\bsp\stm32\libraries\HAL_Drivers\drv_gpio.o
                                                  build\kernel\components\finsh\cmd.o
                                                  build\kernel\components\drivers\src\workqueue.o
                                                  build\kernel\components\drivers\src\waitqueue.o
                                                  build\kernel\components\drivers\src\ringblk_buf.o
                                                  build\kernel\components\drivers\src\dataqueue.o
                                                  build\kernel\components\drivers\src\completion.o
                                                  build\kernel\components\drivers\serial\serial.o
                                                  build\kernel\src\timer.o
                                                  build\kernel\src\thread.o
                                                  build\kernel\src\scheduler.o
                                                  build\kernel\src\object.o
                                                  build\kernel\src\mempool.o
                                                  build\kernel\src\mem.o
                                                  build\kernel\src\irq.o
                                                  build\kernel\src\ipc.o
                                                  build\kernel\src\idle.o
                                                  build\kernel\src\components.o
                                                  build\kernel\src\clock.o
rt_hw_interrupt_enable                            build\kernel\libcpu\arm\cortex-m4\context_gcc.o
                                                  D:\IOT\rtthread-v4.0\rt-thread\bsp\stm32\libraries\HAL_Drivers\drv_usart.o
                                                  D:\IOT\rtthread-v4.0\rt-thread\bsp\stm32\libraries\HAL_Drivers\drv_gpio.o
                                                  build\kernel\components\finsh\cmd.o
                                                  build\kernel\components\drivers\src\workqueue.o
                                                  build\kernel\components\drivers\src\waitqueue.o
                                                  build\kernel\components\drivers\src\ringblk_buf.o
                                                  build\kernel\components\drivers\src\dataqueue.o
                                                  build\kernel\components\drivers\src\completion.o
                                                  build\kernel\components\drivers\serial\serial.o
                                                  build\kernel\src\timer.o
                                                  build\kernel\src\thread.o
                                                  build\kernel\src\scheduler.o
                                                  build\kernel\src\object.o
                                                  build\kernel\src\mempool.o
                                                  build\kernel\src\mem.o
                                                  build\kernel\src\irq.o
                                                  build\kernel\src\ipc.o
                                                  build\kernel\src\idle.o
                                                  build\kernel\src\clock.o
rt_hw_interrupt_thread_switch                     build\kernel\libcpu\arm\cortex-m4\context_gcc.o
rt_hw_pin_init                                    D:\IOT\rtthread-v4.0\rt-thread\bsp\stm32\libraries\HAL_Drivers\drv_gpio.o
                                                  D:\IOT\rtthread-v4.0\rt-thread\bsp\stm32\libraries\HAL_Drivers\drv_common.o
rt_hw_serial_isr                                  build\kernel\components\drivers\serial\serial.o
                                                  D:\IOT\rtthread-v4.0\rt-thread\bsp\stm32\libraries\HAL_Drivers\drv_usart.o
rt_hw_serial_register                             build\kernel\components\drivers\serial\serial.o
                                                  D:\IOT\rtthread-v4.0\rt-thread\bsp\stm32\libraries\HAL_Drivers\drv_usart.o
rt_hw_show_memory                                 build\kernel\libcpu\arm\common\showmem.o
rt_hw_stack_init                                  build\kernel\libcpu\arm\cortex-m4\cpuport.o
                                                  build\kernel\src\thread.o
rt_hw_systick_init                                D:\IOT\rtthread-v4.0\rt-thread\bsp\stm32\libraries\HAL_Drivers\drv_common.o
rt_hw_us_delay                                    D:\IOT\rtthread-v4.0\rt-thread\bsp\stm32\libraries\HAL_Drivers\drv_common.o
rt_hw_usart_init                                  D:\IOT\rtthread-v4.0\rt-thread\bsp\stm32\libraries\HAL_Drivers\drv_usart.o
                                                  D:\IOT\rtthread-v4.0\rt-thread\bsp\stm32\libraries\HAL_Drivers\drv_common.o
rt_interrupt_enter                                build\kernel\src\irq.o
                                                  D:\IOT\rtthread-v4.0\rt-thread\bsp\stm32\libraries\HAL_Drivers\drv_common.o
                                                  D:\IOT\rtthread-v4.0\rt-thread\bsp\stm32\libraries\HAL_Drivers\drv_usart.o
                                                  D:\IOT\rtthread-v4.0\rt-thread\bsp\stm32\libraries\HAL_Drivers\drv_gpio.o
rt_interrupt_enter_sethook                        build\kernel\src\irq.o
rt_interrupt_from_thread                          build\kernel\libcpu\arm\cortex-m4\cpuport.o
                                                  build\kernel\libcpu\arm\cortex-m4\context_gcc.o
rt_interrupt_get_nest                             build\kernel\src\irq.o
                                                  build\kernel\components\drivers\src\waitqueue.o
                                                  build\kernel\components\drivers\src\dataqueue.o
                                                  build\kernel\components\drivers\src\completion.o
                                                  build\kernel\src\object.o
                                                  build\kernel\src\mempool.o
                                                  build\kernel\src\mem.o
                                                  build\kernel\src\kservice.o
                                                  build\kernel\src\ipc.o
                                                  build\kernel\src\idle.o
rt_interrupt_leave                                build\kernel\src\irq.o
                                                  D:\IOT\rtthread-v4.0\rt-thread\bsp\stm32\libraries\HAL_Drivers\drv_common.o
                                                  D:\IOT\rtthread-v4.0\rt-thread\bsp\stm32\libraries\HAL_Drivers\drv_usart.o
                                                  D:\IOT\rtthread-v4.0\rt-thread\bsp\stm32\libraries\HAL_Drivers\drv_gpio.o
rt_interrupt_leave_sethook                        build\kernel\src\irq.o
rt_interrupt_nest                                 build\kernel\src\irq.o
                                                  build\kernel\src\scheduler.o
rt_interrupt_to_thread                            build\kernel\libcpu\arm\cortex-m4\cpuport.o
                                                  build\kernel\libcpu\arm\cortex-m4\context_gcc.o
rt_kprintf                                        build\kernel\src\kservice.o
                                                  build\kernel\components\finsh\msh.o
                                                  build\kernel\components\finsh\cmd.o
                                                  build\kernel\components\finsh\shell.o
                                                  build\kernel\components\drivers\src\waitqueue.o
                                                  build\kernel\components\drivers\src\dataqueue.o
                                                  build\kernel\components\drivers\src\completion.o
                                                  build\kernel\components\drivers\serial\serial.o
                                                  build\kernel\libcpu\arm\cortex-m4\cpuport.o
                                                  build\kernel\libcpu\arm\common\showmem.o
                                                  build\kernel\libcpu\arm\common\backtrace.o
                                                  build\kernel\src\scheduler.o
                                                  build\kernel\src\object.o
                                                  build\kernel\src\mempool.o
                                                  build\kernel\src\mem.o
                                                  build\kernel\src\ipc.o
                                                  build\kernel\src\idle.o
                                                  build\kernel\src\device.o
rt_kputs                                          build\kernel\src\kservice.o
rt_malloc                                         build\kernel\src\mem.o
                                                  build\kernel\components\libc\compilers\minilibc\stdlib.o
                                                  build\kernel\components\finsh\shell.o
                                                  build\kernel\components\drivers\src\workqueue.o
                                                  build\kernel\components\drivers\src\ringbuffer.o
                                                  build\kernel\components\drivers\src\ringblk_buf.o
                                                  build\kernel\components\drivers\src\pipe.o
                                                  build\kernel\components\drivers\src\dataqueue.o
                                                  build\kernel\components\drivers\serial\serial.o
                                                  build\kernel\src\thread.o
                                                  build\kernel\src\object.o
                                                  build\kernel\src\mempool.o
                                                  build\kernel\src\kservice.o
                                                  build\kernel\src\ipc.o
                                                  build\kernel\src\device.o
rt_malloc_align                                   build\kernel\src\kservice.o
rt_malloc_sethook                                 build\kernel\src\mem.o
rt_mb_control                                     build\kernel\src\ipc.o
rt_mb_create                                      build\kernel\src\ipc.o
rt_mb_delete                                      build\kernel\src\ipc.o
rt_mb_detach                                      build\kernel\src\ipc.o
rt_mb_init                                        build\kernel\src\ipc.o
rt_mb_recv                                        build\kernel\src\ipc.o
rt_mb_send                                        build\kernel\src\ipc.o
rt_mb_send_wait                                   build\kernel\src\ipc.o
rt_memcmp                                         build\kernel\src\kservice.o
rt_memcpy                                         build\kernel\src\kservice.o
                                                  build\kernel\components\drivers\serial\serial.o
                                                  build\kernel\src\mem.o
                                                  build\kernel\src\ipc.o
rt_memmove                                        build\kernel\src\kservice.o
                                                  build\kernel\components\finsh\shell.o
rt_memory_info                                    build\kernel\src\mem.o
rt_memset                                         build\kernel\src\kservice.o
                                                  build\kernel\components\drivers\src\pipe.o
                                                  build\kernel\components\drivers\serial\serial.o
                                                  build\kernel\src\thread.o
                                                  build\kernel\src\object.o
                                                  build\kernel\src\mem.o
                                                  build\kernel\src\device.o
rt_mp_alloc                                       build\kernel\src\mempool.o
rt_mp_alloc_sethook                               build\kernel\src\mempool.o
rt_mp_create                                      build\kernel\src\mempool.o
rt_mp_delete                                      build\kernel\src\mempool.o
rt_mp_detach                                      build\kernel\src\mempool.o
rt_mp_free                                        build\kernel\src\mempool.o
rt_mp_free_sethook                                build\kernel\src\mempool.o
rt_mp_init                                        build\kernel\src\mempool.o
rt_mq_control                                     build\kernel\src\ipc.o
rt_mq_create                                      build\kernel\src\ipc.o
rt_mq_delete                                      build\kernel\src\ipc.o
rt_mq_detach                                      build\kernel\src\ipc.o
rt_mq_init                                        build\kernel\src\ipc.o
rt_mq_recv                                        build\kernel\src\ipc.o
rt_mq_send                                        build\kernel\src\ipc.o
rt_mq_send_wait                                   build\kernel\src\ipc.o
rt_mq_urgent                                      build\kernel\src\ipc.o
rt_mutex_control                                  build\kernel\src\ipc.o
rt_mutex_create                                   build\kernel\src\ipc.o
rt_mutex_delete                                   build\kernel\src\ipc.o
rt_mutex_detach                                   build\kernel\src\ipc.o
                                                  build\kernel\components\drivers\src\pipe.o
rt_mutex_init                                     build\kernel\src\ipc.o
                                                  build\kernel\components\drivers\src\pipe.o
rt_mutex_release                                  build\kernel\src\ipc.o
                                                  build\kernel\components\drivers\src\pipe.o
rt_mutex_take                                     build\kernel\src\ipc.o
                                                  build\kernel\components\drivers\src\pipe.o
rt_object_allocate                                build\kernel\src\object.o
                                                  build\kernel\src\timer.o
                                                  build\kernel\src\thread.o
                                                  build\kernel\src\mempool.o
                                                  build\kernel\src\ipc.o
rt_object_attach_sethook                          build\kernel\src\object.o
rt_object_delete                                  build\kernel\src\object.o
                                                  build\kernel\src\timer.o
                                                  build\kernel\src\thread.o
                                                  build\kernel\src\mempool.o
                                                  build\kernel\src\ipc.o
                                                  build\kernel\src\idle.o
rt_object_detach                                  build\kernel\src\object.o
                                                  build\kernel\src\timer.o
                                                  build\kernel\src\thread.o
                                                  build\kernel\src\mempool.o
                                                  build\kernel\src\ipc.o
                                                  build\kernel\src\idle.o
                                                  build\kernel\src\device.o
rt_object_detach_sethook                          build\kernel\src\object.o
rt_object_find                                    build\kernel\src\object.o
rt_object_get_information                         build\kernel\src\object.o
                                                  build\kernel\components\finsh\cmd.o
                                                  build\kernel\src\thread.o
                                                  build\kernel\src\device.o
rt_object_get_type                                build\kernel\src\object.o
                                                  build\kernel\src\timer.o
                                                  build\kernel\src\thread.o
                                                  build\kernel\src\mempool.o
                                                  build\kernel\src\ipc.o
                                                  build\kernel\src\device.o
rt_object_init                                    build\kernel\src\object.o
                                                  build\kernel\src\timer.o
                                                  build\kernel\src\thread.o
                                                  build\kernel\src\mempool.o
                                                  build\kernel\src\ipc.o
                                                  build\kernel\src\device.o
rt_object_is_systemobject                         build\kernel\src\object.o
                                                  build\kernel\src\timer.o
                                                  build\kernel\src\thread.o
                                                  build\kernel\src\mempool.o
                                                  build\kernel\src\ipc.o
                                                  build\kernel\src\idle.o
                                                  build\kernel\src\device.o
rt_object_put_hook                                build\kernel\src\object.o
                                                  build\kernel\src\timer.o
                                                  build\kernel\src\ipc.o
rt_object_put_sethook                             build\kernel\src\object.o
rt_object_take_hook                               build\kernel\src\object.o
                                                  build\kernel\src\timer.o
                                                  build\kernel\src\ipc.o
rt_object_take_sethook                            build\kernel\src\object.o
rt_object_trytake_hook                            build\kernel\src\object.o
                                                  build\kernel\src\ipc.o
rt_object_trytake_sethook                         build\kernel\src\object.o
rt_pin_attach_irq                                 build\kernel\components\drivers\misc\pin.o
rt_pin_detach_irq                                 build\kernel\components\drivers\misc\pin.o
rt_pin_irq_enable                                 build\kernel\components\drivers\misc\pin.o
rt_pin_mode                                       build\kernel\components\drivers\misc\pin.o
                                                  build\applications\main.o
rt_pin_read                                       build\kernel\components\drivers\misc\pin.o
rt_pin_write                                      build\kernel\components\drivers\misc\pin.o
                                                  build\applications\main.o
rt_pipe_close                                     build\kernel\components\drivers\src\pipe.o
rt_pipe_control                                   build\kernel\components\drivers\src\pipe.o
rt_pipe_create                                    build\kernel\components\drivers\src\pipe.o
rt_pipe_delete                                    build\kernel\components\drivers\src\pipe.o
rt_pipe_open                                      build\kernel\components\drivers\src\pipe.o
rt_pipe_read                                      build\kernel\components\drivers\src\pipe.o
rt_pipe_write                                     build\kernel\components\drivers\src\pipe.o
rt_rbb_blk_alloc                                  build\kernel\components\drivers\src\ringblk_buf.o
rt_rbb_blk_buf                                    build\kernel\components\drivers\src\ringblk_buf.o
rt_rbb_blk_free                                   build\kernel\components\drivers\src\ringblk_buf.o
rt_rbb_blk_get                                    build\kernel\components\drivers\src\ringblk_buf.o
rt_rbb_blk_put                                    build\kernel\components\drivers\src\ringblk_buf.o
rt_rbb_blk_queue_buf                              build\kernel\components\drivers\src\ringblk_buf.o
rt_rbb_blk_queue_free                             build\kernel\components\drivers\src\ringblk_buf.o
rt_rbb_blk_queue_get                              build\kernel\components\drivers\src\ringblk_buf.o
rt_rbb_blk_queue_len                              build\kernel\components\drivers\src\ringblk_buf.o
rt_rbb_blk_size                                   build\kernel\components\drivers\src\ringblk_buf.o
rt_rbb_create                                     build\kernel\components\drivers\src\ringblk_buf.o
rt_rbb_destroy                                    build\kernel\components\drivers\src\ringblk_buf.o
rt_rbb_get_buf_size                               build\kernel\components\drivers\src\ringblk_buf.o
rt_rbb_init                                       build\kernel\components\drivers\src\ringblk_buf.o
rt_rbb_next_blk_queue_len                         build\kernel\components\drivers\src\ringblk_buf.o
rt_realloc                                        build\kernel\src\mem.o
                                                  build\kernel\components\libc\compilers\minilibc\stdlib.o
rt_ringbuffer_create                              build\kernel\components\drivers\src\ringbuffer.o
                                                  build\kernel\components\drivers\src\pipe.o
rt_ringbuffer_data_len                            build\kernel\components\drivers\src\ringbuffer.o
rt_ringbuffer_destroy                             build\kernel\components\drivers\src\ringbuffer.o
                                                  build\kernel\components\drivers\src\pipe.o
rt_ringbuffer_get                                 build\kernel\components\drivers\src\ringbuffer.o
                                                  build\kernel\components\drivers\src\pipe.o
rt_ringbuffer_getchar                             build\kernel\components\drivers\src\ringbuffer.o
rt_ringbuffer_init                                build\kernel\components\drivers\src\ringbuffer.o
rt_ringbuffer_put                                 build\kernel\components\drivers\src\ringbuffer.o
                                                  build\kernel\components\drivers\src\pipe.o
rt_ringbuffer_put_force                           build\kernel\components\drivers\src\ringbuffer.o
rt_ringbuffer_putchar                             build\kernel\components\drivers\src\ringbuffer.o
rt_ringbuffer_putchar_force                       build\kernel\components\drivers\src\ringbuffer.o
rt_ringbuffer_reset                               build\kernel\components\drivers\src\ringbuffer.o
rt_schedule                                       build\kernel\src\scheduler.o
                                                  build\kernel\components\drivers\src\workqueue.o
                                                  build\kernel\components\drivers\src\waitqueue.o
                                                  build\kernel\components\drivers\src\dataqueue.o
                                                  build\kernel\components\drivers\src\completion.o
                                                  build\kernel\src\thread.o
                                                  build\kernel\src\mempool.o
                                                  build\kernel\src\ipc.o
rt_schedule_insert_thread                         build\kernel\src\scheduler.o
                                                  build\kernel\src\thread.o
rt_schedule_remove_thread                         build\kernel\src\scheduler.o
                                                  build\kernel\src\thread.o
rt_scheduler_sethook                              build\kernel\src\scheduler.o
rt_sem_control                                    build\kernel\src\ipc.o
rt_sem_create                                     build\kernel\src\ipc.o
rt_sem_delete                                     build\kernel\src\ipc.o
rt_sem_detach                                     build\kernel\src\ipc.o
rt_sem_init                                       build\kernel\src\ipc.o
                                                  build\kernel\components\finsh\shell.o
                                                  build\kernel\components\drivers\src\workqueue.o
                                                  build\kernel\src\mem.o
rt_sem_release                                    build\kernel\src\ipc.o
                                                  build\kernel\components\finsh\shell.o
                                                  build\kernel\components\drivers\src\workqueue.o
                                                  build\kernel\src\mem.o
rt_sem_take                                       build\kernel\src\ipc.o
                                                  build\kernel\components\finsh\shell.o
                                                  build\kernel\components\drivers\src\workqueue.o
                                                  build\kernel\src\mem.o
rt_sem_trytake                                    build\kernel\src\ipc.o
                                                  build\kernel\components\drivers\src\workqueue.o
rt_set_errno                                      build\kernel\src\kservice.o
                                                  build\kernel\components\drivers\src\pipe.o
                                                  build\kernel\components\drivers\serial\serial.o
                                                  build\kernel\src\mempool.o
                                                  build\kernel\src\device.o
rt_show_version                                   build\kernel\src\kservice.o
                                                  build\kernel\components\finsh\cmd.o
                                                  build\kernel\src\components.o
rt_snprintf                                       build\kernel\src\kservice.o
rt_sprintf                                        build\kernel\src\kservice.o
                                                  build\kernel\src\idle.o
rt_strcasecmp                                     build\kernel\src\kservice.o
rt_strcmp                                         build\kernel\src\kservice.o
rt_strdup                                         build\kernel\src\kservice.o
rt_strlen                                         build\kernel\src\kservice.o
                                                  build\kernel\components\libc\compilers\minilibc\string.o
rt_strncmp                                        build\kernel\src\kservice.o
                                                  build\kernel\src\thread.o
                                                  build\kernel\src\object.o
                                                  build\kernel\src\device.o
rt_strncpy                                        build\kernel\src\kservice.o
                                                  build\kernel\components\libc\compilers\minilibc\string.o
                                                  build\kernel\components\finsh\msh.o
                                                  build\kernel\src\object.o
rt_strnlen                                        build\kernel\src\kservice.o
rt_strstr                                         build\kernel\src\kservice.o
rt_system_heap_init                               build\kernel\src\mem.o
                                                  D:\IOT\rtthread-v4.0\rt-thread\bsp\stm32\libraries\HAL_Drivers\drv_common.o
rt_system_object_init                             build\kernel\src\object.o
rt_system_scheduler_init                          build\kernel\src\scheduler.o
                                                  build\kernel\src\components.o
rt_system_scheduler_start                         build\kernel\src\scheduler.o
                                                  build\kernel\src\components.o
rt_system_tick_init                               build\kernel\src\clock.o
rt_system_timer_init                              build\kernel\src\timer.o
                                                  build\kernel\src\components.o
rt_system_timer_thread_init                       build\kernel\src\timer.o
                                                  build\kernel\src\components.o
rt_thread_control                                 build\kernel\src\thread.o
                                                  build\kernel\src\ipc.o
rt_thread_create                                  build\kernel\src\thread.o
                                                  build\kernel\components\finsh\shell.o
                                                  build\kernel\components\drivers\src\workqueue.o
                                                  build\kernel\src\components.o
rt_thread_defunct                                 build\kernel\src\scheduler.o
                                                  build\kernel\src\thread.o
                                                  build\kernel\src\idle.o
rt_thread_delay                                   build\kernel\src\thread.o
rt_thread_delay_until                             build\kernel\src\thread.o
rt_thread_delete                                  build\kernel\src\thread.o
                                                  build\kernel\components\drivers\src\workqueue.o
rt_thread_detach                                  build\kernel\src\thread.o
rt_thread_exit                                    build\kernel\src\thread.o
rt_thread_find                                    build\kernel\src\thread.o
rt_thread_idle_delhook                            build\kernel\src\idle.o
rt_thread_idle_excute                             build\kernel\src\idle.o
rt_thread_idle_gethandler                         build\kernel\src\idle.o
rt_thread_idle_init                               build\kernel\src\idle.o
                                                  build\kernel\src\components.o
rt_thread_idle_sethook                            build\kernel\src\idle.o
rt_thread_init                                    build\kernel\src\thread.o
                                                  build\kernel\src\idle.o
rt_thread_inited_sethook                          build\kernel\src\thread.o
rt_thread_mdelay                                  build\kernel\src\thread.o
                                                  D:\IOT\rtthread-v4.0\rt-thread\bsp\stm32\libraries\HAL_Drivers\drv_common.o
                                                  build\applications\main.o
rt_thread_priority_table                          build\kernel\src\scheduler.o
rt_thread_ready_priority_group                    build\kernel\src\scheduler.o
rt_thread_resume                                  build\kernel\src\thread.o
                                                  build\kernel\components\drivers\src\workqueue.o
                                                  build\kernel\components\drivers\src\waitqueue.o
                                                  build\kernel\components\drivers\src\dataqueue.o
                                                  build\kernel\components\drivers\src\completion.o
                                                  build\kernel\src\mempool.o
                                                  build\kernel\src\ipc.o
rt_thread_resume_sethook                          build\kernel\src\thread.o
rt_thread_self                                    build\kernel\src\thread.o
                                                  build\kernel\components\drivers\src\workqueue.o
                                                  build\kernel\components\drivers\src\waitqueue.o
                                                  build\kernel\components\drivers\src\dataqueue.o
                                                  build\kernel\components\drivers\src\completion.o
                                                  build\kernel\libcpu\arm\cortex-m4\cpuport.o
                                                  build\kernel\src\mempool.o
                                                  build\kernel\src\kservice.o
                                                  build\kernel\src\ipc.o
                                                  build\kernel\src\device.o
                                                  build\kernel\src\clock.o
rt_thread_sleep                                   build\kernel\src\thread.o
rt_thread_startup                                 build\kernel\src\thread.o
                                                  build\kernel\components\finsh\shell.o
                                                  build\kernel\components\drivers\src\workqueue.o
                                                  build\kernel\src\idle.o
                                                  build\kernel\src\components.o
rt_thread_suspend                                 build\kernel\src\thread.o
                                                  build\kernel\components\drivers\src\workqueue.o
                                                  build\kernel\components\drivers\src\waitqueue.o
                                                  build\kernel\components\drivers\src\dataqueue.o
                                                  build\kernel\components\drivers\src\completion.o
                                                  build\kernel\src\mempool.o
                                                  build\kernel\src\ipc.o
rt_thread_suspend_sethook                         build\kernel\src\thread.o
rt_thread_switch_interrupt_flag                   build\kernel\libcpu\arm\cortex-m4\cpuport.o
                                                  build\kernel\libcpu\arm\cortex-m4\context_gcc.o
rt_thread_timeout                                 build\kernel\src\thread.o
rt_thread_yield                                   build\kernel\src\thread.o
                                                  build\kernel\src\clock.o
rt_tick_from_millisecond                          build\kernel\src\clock.o
                                                  build\kernel\components\drivers\src\waitqueue.o
                                                  build\kernel\src\thread.o
rt_tick_get                                       build\kernel\src\clock.o
                                                  D:\IOT\rtthread-v4.0\rt-thread\bsp\stm32\libraries\HAL_Drivers\drv_common.o
                                                  build\kernel\components\libc\compilers\minilibc\time.o
                                                  build\kernel\components\finsh\cmd.o
                                                  build\kernel\src\timer.o
                                                  build\kernel\src\thread.o
                                                  build\kernel\src\mempool.o
                                                  build\kernel\src\ipc.o
rt_tick_increase                                  build\kernel\src\clock.o
                                                  D:\IOT\rtthread-v4.0\rt-thread\bsp\stm32\libraries\HAL_Drivers\drv_common.o
rt_tick_set                                       build\kernel\src\clock.o
rt_timer_check                                    build\kernel\src\timer.o
                                                  build\kernel\src\clock.o
rt_timer_control                                  build\kernel\src\timer.o
                                                  build\kernel\components\drivers\src\waitqueue.o
                                                  build\kernel\components\drivers\src\dataqueue.o
                                                  build\kernel\components\drivers\src\completion.o
                                                  build\kernel\src\thread.o
                                                  build\kernel\src\mempool.o
                                                  build\kernel\src\ipc.o
rt_timer_create                                   build\kernel\src\timer.o
rt_timer_delete                                   build\kernel\src\timer.o
rt_timer_detach                                   build\kernel\src\timer.o
                                                  build\kernel\components\drivers\src\workqueue.o
                                                  build\kernel\src\thread.o
rt_timer_enter_sethook                            build\kernel\src\timer.o
rt_timer_exit_sethook                             build\kernel\src\timer.o
rt_timer_init                                     build\kernel\src\timer.o
                                                  build\kernel\components\drivers\src\workqueue.o
                                                  build\kernel\src\thread.o
rt_timer_next_timeout_tick                        build\kernel\src\timer.o
rt_timer_start                                    build\kernel\src\timer.o
                                                  build\kernel\components\drivers\src\workqueue.o
                                                  build\kernel\components\drivers\src\waitqueue.o
                                                  build\kernel\components\drivers\src\dataqueue.o
                                                  build\kernel\components\drivers\src\completion.o
                                                  build\kernel\src\thread.o
                                                  build\kernel\src\mempool.o
                                                  build\kernel\src\ipc.o
rt_timer_stop                                     build\kernel\src\timer.o
                                                  build\kernel\components\drivers\src\workqueue.o
                                                  build\kernel\src\thread.o
rt_vsnprintf                                      build\kernel\src\kservice.o
rt_vsprintf                                       build\kernel\src\kservice.o
rt_workqueue_cancel_all_work                      build\kernel\components\drivers\src\workqueue.o
rt_workqueue_cancel_work                          build\kernel\components\drivers\src\workqueue.o
rt_workqueue_cancel_work_sync                     build\kernel\components\drivers\src\workqueue.o
rt_workqueue_create                               build\kernel\components\drivers\src\workqueue.o
rt_workqueue_critical_work                        build\kernel\components\drivers\src\workqueue.o
rt_workqueue_destroy                              build\kernel\components\drivers\src\workqueue.o
rt_workqueue_dowork                               build\kernel\components\drivers\src\workqueue.o
rt_workqueue_submit_work                          build\kernel\components\drivers\src\workqueue.o
rt_wqueue_add                                     build\kernel\components\drivers\src\waitqueue.o
rt_wqueue_remove                                  build\kernel\components\drivers\src\waitqueue.o
rt_wqueue_wait                                    build\kernel\components\drivers\src\waitqueue.o
rt_wqueue_wakeup                                  build\kernel\components\drivers\src\waitqueue.o
rtthread_startup                                  build\kernel\src\components.o
shell                                             build\kernel\components\finsh\shell.o
simple_strtol                                     build\kernel\components\libc\compilers\minilibc\string.o
simple_strtoll                                    build\kernel\components\libc\compilers\minilibc\string.o
simple_strtoul                                    build\kernel\components\libc\compilers\minilibc\string.o
simple_strtoull                                   build\kernel\components\libc\compilers\minilibc\string.o
sin                                               build\kernel\components\libc\compilers\minilibc\math.o
snprintf                                          build\kernel\src\kservice.o
software_init_hook                                c:/myprogram/rt_thread/env/tools/gnu_gcc/arm_gcc/mingw/bin/../lib/gcc/arm-none-eabi/5.4.1/../../../../arm-none-eabi/lib/armv7e-m/fpu/crt0.o
sprintf                                           build\kernel\src\kservice.o
srand                                             build\kernel\components\libc\compilers\minilibc\rand.o
srandom                                           build\kernel\components\libc\compilers\minilibc\rand.o
sscanf                                            build\kernel\components\libc\compilers\minilibc\string.o
strcasecmp                                        build\kernel\src\kservice.o
strcat                                            build\kernel\components\libc\compilers\minilibc\string.o
strchr                                            build\kernel\components\libc\compilers\minilibc\string.o
strcmp                                            build\kernel\components\libc\compilers\minilibc\string.o
strcpy                                            build\kernel\components\libc\compilers\minilibc\string.o
                                                  build\kernel\components\finsh\shell.o
strcspn                                           build\kernel\components\libc\compilers\minilibc\string.o
strdup                                            build\kernel\src\kservice.o
strlcpy                                           build\kernel\components\libc\compilers\minilibc\string.o
strlen                                            build\kernel\src\kservice.o
                                                  build\kernel\components\libc\compilers\minilibc\string.o
                                                  build\kernel\components\finsh\msh.o
                                                  build\kernel\components\finsh\shell.o
strncasecmp                                       build\kernel\components\libc\compilers\minilibc\string.o
strncat                                           build\kernel\components\libc\compilers\minilibc\string.o
strncmp                                           build\kernel\components\libc\compilers\minilibc\string.o
                                                  build\kernel\src\kservice.o
                                                  build\kernel\components\finsh\msh.o
                                                  build\kernel\components\finsh\cmd.o
strncpy                                           build\kernel\components\libc\compilers\minilibc\string.o
                                                  build\kernel\src\kservice.o
                                                  build\kernel\components\finsh\shell.o
strrchr                                           build\kernel\components\libc\compilers\minilibc\string.o
strspn                                            build\kernel\components\libc\compilers\minilibc\string.o
strstr                                            build\kernel\src\kservice.o
strtok                                            build\kernel\components\libc\compilers\minilibc\string.o
strtok_r                                          build\kernel\components\libc\compilers\minilibc\string.o
strtol                                            build\kernel\components\libc\compilers\minilibc\string.o
strtoll                                           build\kernel\components\libc\compilers\minilibc\string.o
time                                              build\kernel\components\libc\compilers\minilibc\time.o
tolower                                           build\kernel\components\libc\compilers\minilibc\string.o
toupper                                           build\kernel\components\libc\compilers\minilibc\string.o
uwTick                                            D:\IOT\rtthread-v4.0\rt-thread\bsp\stm32\libraries\STM32F4xx_HAL\STM32F4xx_HAL_Driver\Src\stm32f4xx_hal.o
uwTickFreq                                        D:\IOT\rtthread-v4.0\rt-thread\bsp\stm32\libraries\STM32F4xx_HAL\STM32F4xx_HAL_Driver\Src\stm32f4xx_hal.o
uwTickPrio                                        D:\IOT\rtthread-v4.0\rt-thread\bsp\stm32\libraries\STM32F4xx_HAL\STM32F4xx_HAL_Driver\Src\stm32f4xx_hal.o
version                                           build\kernel\components\finsh\cmd.o
vsprintf                                          build\kernel\src\kservice.o
vsscanf                                           build\kernel\components\libc\compilers\minilibc\string.o
